(dp1
S'limited'
p2
I1408
sS'magnetic'
p3
I954
sS'saves'
p4
I567
sS'mcbook'
p5
I1875
sS'sleek'
p6
I932
sS'four'
p7
I455
sS'prices'
p8
I2682
sS'sleep'
p9
I2797
sS'saved'
p10
I835
sS'poorly'
p11
I475
sS'stinks'
p12
I2016
sS'looking'
p13
I321
sS'replacements'
p14
I788
sS'backup'
p15
I548
sS'bays'
p16
I2467
sS'brilliant'
p17
I3154
sS'swap'
p18
I2519
sS'under'
p19
I320
sS'teaching'
p20
I2271
sS'sorry'
p21
I1399
sS'flicking'
p22
I1660
sS'spec'
p23
I1159
sS'updated'
p24
I354
sS'dell'
p25
I616
sS'comfterbale'
p26
I2014
sS'hdtv'
p27
I2341
sS'every'
p28
I201
sS'updates'
p29
I1457
sS'chrismas'
p30
I2917
sS'affect'
p31
I2226
sS'vast'
p32
I611
sS'school'
p33
I1350
sS'basics'
p34
I2358
sS'companies'
p35
I1974
sS'solution'
p36
I2297
sS'integrated'
p37
I2978
sVfrozen
p38
I2135
sS'convenience'
p39
I1793
sS'unrelated'
p40
I2095
sS'5850'
p41
I1943
sS'comfortble'
p42
I702
sS'artist'
p43
I2575
sS'ups'
p44
I1684
sS'seemlessly'
p45
I2789
sS'enjoy'
p46
I433
sS'force'
p47
I429
sS'specially'
p48
I1482
sS'tired'
p49
I1992
sS'phones'
p50
I1217
sS'mail'
p51
I2402
sS'direct'
p52
I33
sS'budget'
p53
I2391
sS'nail'
p54
I3343
sS'elegant'
p55
I3241
sS'second'
p56
I1142
sS'louder'
p57
I741
sS'air'
p58
I3150
sS'specs'
p59
I1916
sS'machines'
p60
I1171
sS'even'
p61
I73
sS'errors'
p62
I2720
sS'hide'
p63
I2227
sS'hate'
p64
I1220
sS'+'
I685
sS'fingers'
p65
I2024
sVsupplied
p66
I2374
sS'wouldnt'
p67
I2120
sS'above'
p68
I929
sS'resilient'
p69
I1504
sS'new'
p70
I424
sS'net'
p71
I1866
sS'ever'
p72
I286
sS'destroy'
p73
I2293
sS'told'
p74
I331
sS'deemed'
p75
I1519
sS'kicked'
p76
I2857
sS'simultaneously'
p77
I3015
sS'screams'
p78
I1260
sS'never'
p79
I162
sS'stared'
p80
I3043
sS'drew'
p81
I2126
sS'met'
p82
I1461
sS'protection'
p83
I566
sS'textured'
p84
I897
sS'dorm'
p85
I2939
sS'100'
p86
I401
sS'patches'
p87
I1940
sS'chaotic'
p88
I2328
sS'kids'
p89
I1323
sS'daughter'
p90
I580
sS'items'
p91
I3017
sS'leaves'
p92
I2453
sS'changed'
p93
I2178
sS'8x'
p94
I3287
sS'reports'
p95
I2601
sS'expedited'
p96
I2558
sS'itunes'
p97
I850
sS'credit'
p98
I341
sS'browsing'
p99
I526
sS'reacts'
p100
I3027
sS'theres'
p101
I1533
sS'criticism'
p102
I3148
sS'whatnot'
p103
I1003
sS'secure'
p104
I2338
sS'mobility'
p105
I3187
sS'explained'
p106
I2006
sS'schooling'
p107
I3478
sS'highly'
p108
I56
sS'brought'
p109
I1339
sS'moral'
p110
I1973
sS'total'
p111
I2591
sS'forums'
p112
I3275
sS'unit'
p113
I561
sS'overheat'
p114
I68
sS'spoke'
p115
I2585
sS'would'
p116
I338
sS'insult'
p117
I618
sS'choosen'
p118
I2536
sS'moth'
p119
I2698
sS'music'
p120
I584
sS'therefore'
p121
I893
sS'surfuring'
p122
I3256
sS'recommend'
p123
I996
sS'sexy'
p124
I3139
sS'bundled'
p125
I58
sS'type'
p126
I666
sS'turin'
p127
I879
sS'paperwork'
p128
I2598
sS'relax'
p129
I1819
sS'yahoo'
p130
I2863
sVaware
p131
I1721
sS'99'
p132
I2730
sS'phone'
p133
I362
sS'warm'
p134
I2432
sS'excellent'
p135
I731
sS'90'
p136
I1785
sS'hold'
p137
I679
sS'must'
p138
I1437
sS'me'
p139
I12
sS'cliick'
p140
I1256
sS'locked'
p141
I591
sS'room'
p142
I2444
sVplayer
p143
I1650
sS'setup'
p144
I302
sS'work'
p145
I235
sS'entertained'
p146
I3001
sS'worth'
p147
I716
sS'movies'
p148
I632
sS'temperatures'
p149
I555
sS'install'
p150
I767
sS'experts'
p151
I1985
sS'my'
p152
I34
sS'example'
p153
I2691
sS'16gb'
p154
I2468
sS'initial'
p155
I2409
sS'headphones'
p156
I2145
sS'harddrives'
p157
I2252
sS'give'
p158
I1927
sVcited
p159
I1888
sS'beautifully'
p160
I2212
sS'organized'
p161
I1848
sS'gadgets'
p162
I2310
sS'want'
p163
I640
sS'scheduling'
p164
I1572
sS'performace'
p165
I459
sS'keep'
p166
I261
sS'guarantee'
p167
I1448
sS'win8'
p168
I3184
sS'end'
p169
I1174
sS'recovery'
p170
I537
sVthing
p171
I93
sS'provide'
p172
I2483
sS'ie'
p173
I3013
sS'travel'
p174
I936
sS'sitting'
p175
I2450
sS'feature'
p176
I827
sS'machine'
p177
I264
sS'far'
p178
I1068
sS'amazing'
p179
I396
sS'answer'
p180
I2582
sVfaulty
p181
I2171
sS'charging'
p182
I956
sS'massive'
p183
I2732
sS'gaming'
p184
I186
sS'lan'
p185
I1335
sS'beauty'
p186
I3086
sS'replacing'
p187
I2380
sS'typed'
p188
I2156
sVafter
p189
I95
sS'lab'
p190
I3182
sS'connects'
p191
I2492
sS'wrong'
p192
I1243
sS'lot'
p193
I441
sS'lap'
p194
I444
sS'excited'
p195
I3226
sS'royce'
p196
I2312
sS'purchase'
p197
I389
sS'attempt'
p198
I1764
sVthird
p199
I1550
sS'occasions'
p200
I2065
sS'appreciate'
p201
I2633
sS'headquarters'
p202
I1722
sS'discontinued'
p203
I2392
sS'maintain'
p204
I3135
sS'upside'
p205
I3342
sS'ultimate'
p206
I1141
sS'keeps'
p207
I1089
sS'ethernet'
p208
I823
sS'1000'
p209
I1929
sS'order'
p210
I457
sS'unsteady'
p211
I1361
sS'infested'
p212
I2950
sS'office'
p213
I232
sS'welcomed'
p214
I2685
sS'over'
p215
I399
sS'vary'
p216
I3122
sS'satisfied'
p217
I198
sS'underside'
p218
I3379
sS'retina'
p219
I3166
sS'keyboard'
p220
I214
sS'responsive'
p221
I746
sS'wlan'
p222
I3459
sS'tops'
p223
I3203
sS'before'
p224
I1359
sS'admirably'
p225
I3268
sS'fit'
p226
I2476
sS'personal'
p227
I409
sS'fix'
p228
I417
sS'expectations'
p229
I1070
sS'writing'
p230
I510
sS'better'
p231
I499
sS'production'
p232
I2196
sS'omitted'
p233
I1632
sS'vents'
p234
I1060
sS'weeks'
p235
I896
sS'carton'
p236
I1255
sS'easier'
p237
I438
sS'overcome'
p238
I2874
sS'pleasurable'
p239
I3225
sS'then'
p240
I21
sVthem
p241
I1136
sS'combination'
p242
I1659
sS'downs'
p243
I2000
sS'safe'
p244
I3049
sS'8gb'
p245
I2304
sS'finish'
p246
I3254
sS'break'
p247
I170
sS'band'
p248
I85
sS'bang'
p249
I641
sS'effects'
p250
I1534
sS'they'
p251
I118
sS'velcro'
p252
I2201
sS'schools'
p253
I2270
sS'altogether'
p254
I3126
sS'sixteen'
p255
I385
sS'lifelong'
p256
I1910
sS'brightness'
p257
I2869
sS'reasonably'
p258
I1778
sS'fonts'
p259
I3441
sS'noticably'
p260
I3240
sS'm6809'
p261
I2773
sS'noticable'
p262
I2856
sS'reasonable'
p263
I1767
sS'each'
p264
I1600
sS'addicted'
p265
I2488
sS'went'
p266
I447
sS'side'
p267
I1061
sS'lasting'
p268
I1175
sS'adobe'
p269
I1115
sS'meets'
p270
I200
sS'ligh'
p271
I112
sS'taught'
p272
I1576
sS'forgot'
p273
I2597
sS'classmates'
p274
I2541
sS'enclosure'
p275
I159
sS'network'
p276
I1872
sS'driving'
p277
I1498
sS'restricted'
p278
I2442
sS'hooked'
p279
I822
sS'content'
p280
I3236
sS're'
p281
I119
sS'laid'
p282
I3305
sS'adapt'
p283
I2705
sS'precision'
p284
I3348
sS'reader'
p285
I772
sS'got'
p286
I74
sS'ware'
p287
I1988
sS'forth'
p288
I2704
sS'extensively'
p289
I3207
sS'unrepaired'
p290
I2298
sS'meantioned'
p291
I1526
sS'associate'
p292
I637
sS'hang'
p293
I774
sS'machouse'
p294
I2256
sVgiven
p295
I1435
sS'free'
p296
I536
sS'standard'
p297
I1393
sS'struggle'
p298
I3406
sS'backlit'
p299
I213
sS'sadly'
p300
I2755
sS'wanted'
p301
I448
sS'certified'
p302
I2274
sS'enormous'
p303
I604
sS'created'
p304
I2129
sS'starts'
p305
I2717
sS'inexpensive'
p306
I1913
sS'days'
p307
I333
sS'heading'
p308
I1982
sS'lousy'
p309
I3130
sS'shipped'
p310
I1624
sS'musicians'
p311
I2664
sS'speedy'
p312
I2052
sS'signature'
p313
I3235
sS'aspire'
p314
I1294
sS'arrived'
p315
I1211
sS'loud'
p316
I324
sS'speeds'
p317
I2904
sS'purpose'
p318
I2957
sS'wasy'
p319
I1626
sS'manuf'
p320
I872
sS'already'
p321
I1889
sS'features'
p322
I78
sS'render'
p323
I630
sS'grade'
p324
I1733
sS'*'
I2041
sS'r700'
p325
I737
sS'hearing'
p326
I3190
sS'hook'
p327
I1267
sS'spinning'
p328
I1797
sS'downside'
p329
I2140
sS'another'
p330
I728
sS'176'
p331
I2299
sS'175'
p332
I1058
sS'clarity'
p333
I2223
sS'electronic'
p334
I1242
sS'researched'
p335
I2683
sS'rated'
p336
I2889
sS'service'
p337
I23
sS'similarly'
p338
I1169
sS'top'
p339
I445
sS'amsterdam'
p340
I2257
sS'approximately'
p341
I895
sS'stack'
p342
I2306
sS'needed'
p343
I1062
sS'newegg'
p344
I1677
sS'ton'
p345
I2436
sS'too'
p346
I368
sS'machined'
p347
I2774
sS'inconvenient'
p348
I1711
sS'dogs'
p349
I1324
sS'listen'
p350
I1231
sS'idvd'
p351
I2376
sS'bouncing'
p352
I2132
sS'tool'
p353
I2514
sS'took'
p354
I144
sS'task'
p355
I3233
sS'somewhat'
p356
I934
sS'wasted'
p357
I1066
sS'kept'
p358
I1340
sS'brushed'
p359
I3355
sS'sticker'
p360
I3353
sS'lenovo'
p361
I2799
sS'keyword'
p362
I1076
sS'enabled'
p363
I2427
sS'likely'
p364
I1185
sS'seated'
p365
I3458
sS'preformed'
p366
I2368
sS'matter'
p367
I755
sS'idle'
p368
I2981
sS'fabulous'
p369
I1640
sS'silly'
p370
I3175
sS'friend'
p371
I1757
sVaftereffects
p372
I1886
sS'silky'
p373
I3431
sS'10th'
p374
I2288
sS'minus'
p375
I2370
sS'mini'
p376
I3138
sS'lbs'
p377
I3416
sS'failing'
p378
I2458
sS'nvidia'
p379
I1753
sS'ran'
p380
I1180
sS'navigate'
p381
I439
sS'ram'
p382
I1356
sS'mind'
p383
I800
sS'mine'
p384
I1594
sS'anybody'
p385
I1817
sS'talking'
p386
I336
sS'ergonomics'
p387
I2807
sS'analysis'
p388
I2894
sS'goodness'
p389
I3191
sS'further'
p390
I3451
sS'seen'
p391
I1559
sS'seem'
p392
I2028
sS'edgy'
p393
I2228
sS'tells'
p394
I1128
sS'configure'
p395
I1555
sS'forced'
p396
I422
sS'tweezers'
p397
I3466
sS'convenient'
p398
I1854
sS'latter'
p399
I1129
sS'firmware'
p400
I3470
sS'-'
I29
sS'vga'
p401
I725
sS'casual'
p402
I744
sVcontact
p403
I2373
sS'niece'
p404
I1786
sS'blue'
p405
I149
sS'lightscribe'
p406
I2976
sS'wrists'
p407
I1814
sS'though'
p408
I722
sS'thrilled'
p409
I1453
sS'outcome'
p410
I1451
sS'regular'
p411
I1845
sS'plenty'
p412
I1546
sS'programm'
p413
I2599
sS'macbook'
p414
I122
sS'opted'
p415
I1712
sS'topple'
p416
I3113
sS'webcam'
p417
I402
sS'don'
p418
I2983
sS'mainboard'
p419
I2501
sS'camp'
p420
I2086
sS'm'
I1190
sVdog
p421
I2881
sS'doe'
p422
I2534
sS'definitely'
p423
I1575
sS'tech'
p424
I19
sS'enterprise'
p425
I3120
sS'came'
p426
I393
sS'incorporate'
p427
I2010
sS'desktops'
p428
I749
sS'overpriced'
p429
I2327
sS'contacted'
p430
I1679
sS'saga'
p431
I3299
sS'pops'
p432
I2247
sS'colors'
p433
I847
sS'showing'
p434
I3255
sS'desinged'
p435
I3101
sS'nephew'
p436
I1787
sS'cheaply'
p437
I1027
sS'enjoyed'
p438
I2715
sS'layout'
p439
I1846
sS'41c'
p440
I2980
sS'menu'
p441
I882
sS'hrs'
p442
I1861
sS'here'
p443
I2203
sS'clicker'
p444
I1742
sS'touched'
p445
I798
sS'photo'
p446
I1421
sS'folks'
p447
I3123
sS'folder'
p448
I469
sS'sporting'
p449
I2896
sS'do'
p450
I27
sS'occational'
p451
I1901
sS'wide'
p452
I2572
sS'inoperative'
p453
I2111
sS'stop'
p454
I1622
sS'dc'
p455
I2627
sS'preferred'
p456
I2782
sS'geek'
p457
I972
sS'shutting'
p458
I2151
sS'cracks'
p459
I1747
sS'technicians'
p460
I3057
sS'despite'
p461
I1710
sS'report'
p462
I1024
sS'bridge'
p463
I3422
sVreinstall
p464
I1951
sS'unconsciously'
p465
I3325
sS'unfortunately'
p466
I2961
sS'runs'
p467
I374
sS'overbearing'
p468
I3185
sS'bar'
p469
I520
sS'covering'
p470
I2388
sS'nicely'
p471
I1041
sS'excel'
p472
I1832
sS'vlog'
p473
I3294
sS'method'
p474
I2535
sS'bag'
p475
I656
sVbad
p476
I812
sS'discs'
p477
I538
sS'occurance'
p478
I2726
sS'steam'
p479
I3404
sVreinsalled
p480
I1653
sS'respond'
p481
I2913
sS'attest'
p482
I2441
sS'decides'
p483
I1425
sS'smoothness'
p484
I3447
sS'motherboard'
p485
I414
sS'sensitivity'
p486
I2568
sS'testing'
p487
I497
sS'detection'
p488
I2926
sS'pads'
p489
I3129
sS'decided'
p490
I2030
sVresult
p491
I2103
sS'corrupt'
p492
I2696
sS'best'
p493
I290
sS'usb3'
p494
I3189
sS'said'
p495
I22
sS'capacity'
p496
I2018
sS'lots'
p497
I59
sS'away'
p498
I1001
sS'future'
p499
I1612
sS'finger'
p500
I2677
sS'c2d'
p501
I1825
sS'simplest'
p502
I3398
sS'sorts'
p503
I2460
sS'winblows'
p504
I2083
sS'glossy'
p505
I941
sS'we'
p506
I452
sS'men'
p507
I687
sS'terms'
p508
I530
sS'wears'
p509
I987
sS'extend'
p510
I260
sS'nature'
p511
I1307
sS'wo'
p512
I643
sS'weak'
p513
I2056
sS'however'
p514
I134
sS'weary'
p515
I2339
sS'openning'
p516
I2215
sS'loading'
p517
I2464
sS'wear'
p518
I1444
sS'disservice'
p519
I617
sS'downgrade'
p520
I3367
sS'packages'
p521
I841
sS'techies'
p522
I2423
sS'received'
p523
I1411
sS'protect'
p524
I1582
sS'accident'
p525
I959
sS'sacrificing'
p526
I1133
sS'country'
p527
I311
sS'adapter'
p528
I1718
sS'heating'
p529
I2177
sS'against'
p530
I2307
sS'5870'
p531
I2303
sS'games'
p532
I581
sS'planned'
p533
I2645
sS'receiver'
p534
I3145
sS'garageband'
p535
I843
sS'expense'
p536
I1258
sS'com'
p537
I1981
sS'asked'
p538
I540
sS'jack'
p539
I2144
sS'con'
p540
I173
sVsuggest
p541
I1958
sVappeared
p542
I1656
sS'vain'
p543
I2267
sS'vaio'
p544
I1472
sS'improvment'
p545
I612
sS'2nd'
p546
I1938
sS'tons'
p547
I1903
sS'viruses'
p548
I1065
sS'loaded'
p549
I1198
sS'250'
p550
I1751
sS'trust'
p551
I2491
sS'heals'
p552
I2974
sS'asks'
p553
I2187
sS'chrome'
p554
I2394
sS'patch'
p555
I3471
sS'three'
p556
I1176
sS'been'
p557
I283
sS'.'
I18
sS'restarts'
p558
I3238
sS'confident'
p559
I2632
sS'much'
p560
I70
sS'dreamweaver'
p561
I1691
sS'basic'
p562
I2680
sS'expected'
p563
I1194
sS'lovely'
p564
I2638
sS'spongey'
p565
I3097
sS'website'
p566
I426
sS'life'
p567
I17
sS'recomend'
p568
I1404
sVaccidently
p569
I2316
sS'900'
p570
I2764
sS'uncommon'
p571
I2617
sS'fuzz'
p572
I2888
sVtapping
p573
I720
sS'personally'
p574
I2026
sS'semprom'
p575
I948
sS'worked'
p576
I446
sVirriplaceable
p577
I2994
sS'heavier'
p578
I3417
sS'has'
p579
I50
sS'professionally'
p580
I3457
sS'n'
I2612
sS'formatting'
p581
I1838
sS'neat'
p582
I2845
sS'dashboard'
p583
I2159
sS'trimming'
p584
I2104
sS'launched'
p585
I2082
sS'mistake'
p586
I3265
sS'seven'
p587
I650
sS'cons'
p588
I3156
sS'locekd'
p589
I2836
sS'gigabit'
p590
I3401
sS'played'
p591
I1788
sS'exceptionally'
p592
I2061
sS'is'
p593
I42
sS'it'
p594
I3
sS'expenses'
p595
I1574
sS'ii'
p596
I2069
sS'shame'
p597
I1275
sS'cant'
p598
I2324
sS'im'
p599
I1050
sS'brutal'
p600
I3054
sS'exterior'
p601
I3263
sS'in'
p602
I121
sS'9ghz'
p603
I3327
sS'mouse'
p604
I183
sS'trusted'
p605
I2234
sS'if'
p606
I379
sS'grown'
p607
I3376
sS'resetting'
p608
I2463
sS'ibook'
p609
I2610
sS'perform'
p610
I880
sS'things'
p611
I466
sS'make'
p612
I180
sS'transporting'
p613
I1869
sS'who'
p614
I620
sS'drawback'
p615
I732
sS'split'
p616
I3096
sS'dvds'
p617
I1775
sS'several'
p618
I271
sS'bid'
p619
I1589
sS'occassionally'
p620
I3012
sS'wheel'
p621
I1830
sS'fairly'
p622
I1164
sS'satellite'
p623
I390
sS'inadvertently'
p624
I1252
sS'i3'
p625
I2860
sS'social'
p626
I2554
sS'i5'
p627
I127
sS'i7'
p628
I129
sS'kit'
p629
I3364
sS'ownership'
p630
I2781
sVdark
p631
I104
sS'protected'
p632
I2835
sS'cycle'
p633
I3272
sVshortly
p634
I815
sS'programs'
p635
I1119
sS'720p'
p636
I1707
sS'uploading'
p637
I1705
sS'suffering'
p638
I3258
sS'externally'
p639
I2970
sS'academic'
p640
I2515
sS'savings'
p641
I3358
sS'materials'
p642
I1124
sS'greatest'
p643
I2044
sVmother
p644
I492
sS'claims'
p645
I350
sS'the'
p646
I9
sS'800'
p647
I1291
sS'left'
p648
I1544
sS'background'
p649
I1528
sS'just'
p650
I236
sS'yea'
p651
I2198
sS'able'
p652
I307
sS'laptop'
p653
I89
sS'fantastic'
p654
I2650
sS'somethings'
p655
I3280
sS'bugged'
p656
I586
sS'farther'
p657
I988
sS'human'
p658
I1014
sS'verion'
p659
I2186
sS'yes'
p660
I593
sS'32'
p661
I2261
sVyet
p662
I494
sS'functionally'
p663
I1947
sS'previous'
p664
I748
sS'adding'
p665
I1112
sS'designers'
p666
I1739
sS'family'
p667
I2335
sS'vibration'
p668
I1342
sS'imacs'
p669
I3284
sS'photographer'
p670
I3472
sS'ease'
p671
I515
sS'had'
p672
I219
sS'greatly'
p673
I2684
sVboard
p674
I493
sS'easy'
p675
I62
sS'technological'
p676
I3087
sS'save'
p677
I1345
sS'gave'
p678
I304
sS'usable'
p679
I3394
sS'grounding'
p680
I1187
sS'boasted'
p681
I2282
sS'advances'
p682
I3088
sS'breaks'
p683
I829
sS'possible'
p684
I1834
sS'spanned'
p685
I1241
sS'lcd'
p686
I1645
sS'beast'
p687
I2750
sS'photobooth'
p688
I83
sS'wanting'
p689
I1209
sS'unique'
p690
I1261
sS'advanced'
p691
I1964
sS'apart'
p692
I2185
sS'strengths'
p693
I3065
sS'gift'
p694
I2124
sS'glitch'
p695
I3152
sS'performing'
p696
I2005
sS'manual'
p697
I2563
sS'unnecessary'
p698
I184
sS'specific'
p699
I863
sS'hunk'
p700
I1470
sS'overrated'
p701
I2408
sS'night'
p702
I5
sS'hung'
p703
I2049
sS'security'
p704
I713
sS'signal'
p705
I3035
sS'unexplored'
p706
I2343
sS'right'
p707
I976
sS'honored'
p708
I994
sVdeal
p709
I1541
sS'people'
p710
I608
sS'sends'
p711
I501
sS'somehow'
p712
I760
sVdead
p713
I2639
sS'50'
p714
I1392
sS'sure'
p715
I1051
sS'hassle'
p716
I2708
sS'paragraphs'
p717
I2619
sS'pain'
p718
I2087
sS'tutorial'
p719
I1309
sS'confusing'
p720
I2848
sS'for'
p721
I146
sS'bottom'
p722
I2367
sS'normal'
p723
I2861
sS'/'
I776
sS'creative'
p724
I1116
sS'everything'
p725
I220
sS'asking'
p726
I2191
sS'offices'
p727
I3053
sS'displayed'
p728
I2249
sS'cord'
p729
I10
sS'core'
p730
I559
sS'thephone'
p731
I1279
sVdeleted
p732
I2999
sS'burn'
p733
I1416
sS'hsn'
p734
I2231
sS'costs'
p735
I1601
sS'stylish'
p736
I2105
sS'keeper'
p737
I2674
sS'magsafe'
p738
I3285
sS'post'
p739
I2165
sS'manufacturing'
p740
I2345
sS'super'
p741
I1246
sS'underpowered'
p742
I3172
sS'plug'
p743
I955
sS'dollars'
p744
I273
sS'months'
p745
I281
sS'o'
I1597
sS's5934'
p746
I392
sS'unibody'
p747
I1744
sS'dedicate'
p748
I3419
sS'plus'
p749
I1233
sS'span'
p750
I2964
sS'slightly'
p751
I2431
sS'overheats'
p752
I2574
sS'managers'
p753
I3071
sS'froze'
p754
I357
sS'facility'
p755
I3044
sS'sol'
p756
I2387
sS'parsing'
p757
I1077
sS'down'
p758
I360
sS'rendering'
p759
I1032
sS'old'
p760
I334
sS'mbp'
p761
I1784
sS'east'
p762
I1375
sS'familiarize'
p763
I3289
sS'implore'
p764
I2965
sS'amazingly'
p765
I1270
sS'suffice'
p766
I1087
sS'constantly'
p767
I472
sS'inspected'
p768
I2941
sS'payment'
p769
I1564
sVstuck
p770
I719
sS'accordingly'
p771
I2404
sS'quirks'
p772
I2035
sS'way'
p773
I188
sS'call'
p774
I1102
sS'was'
p775
I279
sS'sowish'
p776
I1950
sS'purposely'
p777
I2292
sS'l305d'
p778
I391
sS'lowest'
p779
I2487
sS'head'
p780
I2876
sS'medium'
p781
I2608
sS'form'
p782
I1394
sS'offer'
p783
I1455
sS'6'
I1688
sS'removes'
p784
I2868
sS'wireless'
p785
I1082
sS'failure'
p786
I2641
sS'heat'
p787
I2037
sS'removed'
p788
I1006
sS'true'
p789
I2481
sS'squaretrade'
p790
I3159
sS'dump'
p791
I2920
sS'reset'
p792
I152
sS'responding'
p793
I2197
sS'versions'
p794
I1490
sVinside
p795
I870
sS'attached'
p796
I3277
sS'maximum'
p797
I1200
sS'devices'
p798
I209
sS'until'
p799
I166
sS'crystal'
p800
I845
sS'complaint'
p801
I1881
sS'delete'
p802
I513
sS'mails'
p803
I3072
sS'hotlines'
p804
I2001
sS'shooter'
p805
I2543
sS'sticks'
p806
I2473
sS'computing'
p807
I952
sS'159'
p808
I1514
sS'toss'
p809
I1870
sS'covers'
p810
I2050
sS'contemplating'
p811
I3137
sS'exist'
p812
I2923
sS'tarnished'
p813
I1183
sS'request'
p814
I2181
sS'ship'
p815
I3041
sS'annoying'
p816
I2663
sS'mousepad'
p817
I673
sS'check'
p818
I928
sS'shit'
p819
I1701
sS'physical'
p820
I1520
sS'astonishing'
p821
I2859
sS'vista'
p822
I613
sS'techs'
p823
I1108
sVno
p824
I101
sS'alerts'
p825
I1961
sS'generally'
p826
I765
sS'handed'
p827
I2146
sS'reality'
p828
I461
sS'tim'
p829
I2420
sS'setting'
p830
I299
sS'holding'
p831
I2844
sS'papers'
p832
I2653
sS'test'
p833
I958
sS'depot'
p834
I1518
sVroll
p835
I2997
sS'realize'
p836
I2623
sS'scored'
p837
I2818
sS'picture'
p838
I1547
sS"'s"
p839
I250
sS'models'
p840
I2383
sS'surprise'
p841
I2506
sS'felt'
p842
I2523
sS'update'
p843
I356
sS'wars'
p844
I3298
sS'tabs'
p845
I3014
sS'fell'
p846
I2184
sS'recenlty'
p847
I2291
sS'scores'
p848
I2551
sS'wirelessly'
p849
I2053
sS'hurt'
p850
I2384
sS'died'
p851
I415
sS'unmatched'
p852
I3179
sS'translate'
p853
I2984
sS'faster'
p854
I442
sS'glass'
p855
I487
sS'together'
p856
I193
sS'time'
p857
I394
sS'push'
p858
I1464
sS'serious'
p859
I2152
sS'songs'
p860
I486
sS'osx'
p861
I1262
sS'punds'
p862
I378
sS'rom'
p863
I3425
sS'switched'
p864
I1672
sS'skip'
p865
I7
sS'macosx'
p866
I2322
sS'focus'
p867
I3399
sS'manager'
p868
I1439
sS'sensitve'
p869
I2852
sS'recharge'
p870
I225
sS'supposedly'
p871
I2426
sS'anticipation'
p872
I1783
sS'yummy'
p873
I2714
sS'zone'
p874
I1346
sVflash
p875
I1649
sS'gigs'
p876
I1702
sS'environment'
p877
I2759
sS'0'
I2283
sS'finally'
p878
I218
sS'permanently'
p879
I2472
sS'text'
p880
I3009
sS'suffered'
p881
I805
sVagreed
p882
I2723
sS'downloading'
p883
I2833
sS'advantage'
p884
I458
sS'grill'
p885
I2109
sS'educated'
p886
I3400
sS'tends'
p887
I2452
sS'keeping'
p888
I2958
sS'seemingly'
p889
I1917
sS'choice'
p890
I943
sS'knapsack'
p891
I3008
sS'artwork'
p892
I1777
sS'word'
p893
I527
sS'trouble'
p894
I451
sS'exact'
p895
I3095
sS'minute'
p896
I2371
sS'cool'
p897
I658
sS'impressive'
p898
I2636
sS'level'
p899
I1556
sS'did'
p900
I276
sS'die'
p901
I1401
sS'gui'
p902
I53
sS'cheapest'
p903
I2928
sS'accidentally'
p904
I2618
sS'leave'
p905
I681
sS'solved'
p906
I1449
sS'videocard'
p907
I1991
sS'team'
p908
I39
sS'quick'
p909
I1121
sS'guy'
p910
I20
sS'upper'
p911
I2855
sS'droid'
p912
I224
sS'htc'
p913
I1298
sS'regret'
p914
I2784
sS'intial'
p915
I3125
sS'trend'
p916
I2045
sVdealing
p917
I2786
sS'discover'
p918
I1670
sS'slowed'
p919
I3336
sS'cost'
p920
I339
sS'reinstalling'
p921
I1995
sS'port'
p922
I726
sS'150'
p923
I3127
sS'adds'
p924
I3011
sS'appear'
p925
I1831
sS'assistance'
p926
I517
sS'debate'
p927
I3164
sS'current'
p928
I2340
sVgoes
p929
I1155
sS'falling'
p930
I2971
sS'crashing'
p931
I474
sS'boost'
p932
I1924
sS'filled'
p933
I3354
sS'era'
p934
I2238
sS'satisfy'
p935
I2915
sS'slot'
p936
I3174
sVbarcode
p937
I2772
sS'ms'
p938
I1488
sS'v'
I1936
sS'understanding'
p939
I2785
sS'water'
p940
I1031
sS'downloaded'
p941
I2262
sS'slow'
p942
I265
sS'address'
p943
I2011
sS'alone'
p944
I1796
sS'along'
p945
I292
sS'change'
p946
I1221
sS'wait'
p947
I1314
sS'box'
p948
I1000
sS'sending'
p949
I1365
sS'reformatting'
p950
I1994
sS'noticeable'
p951
I3064
sS'dusty'
p952
I3063
sS'shift'
p953
I2580
sS'trial'
p954
I1489
sS'throughput'
p955
I1801
sS'diagnosed'
p956
I3474
sS'suggestion'
p957
I228
sS'jaw'
p958
I3397
sVusually
p959
I111
sS'weird'
p960
I660
sS'swipes'
p961
I3276
sS'navigation'
p962
I1673
sS'teenage'
p963
I75
sS'tasks'
p964
I3234
sS'love'
p965
I187
sS'extra'
p966
I707
sS'pentium'
p967
I2761
sS'prefer'
p968
I2886
sS'flexibility'
p969
I2547
sS'1st'
p970
I1150
sS'bookmarks'
p971
I3220
sS'rarely'
p972
I431
sVmarket
p973
I1434
sS'yourself'
p974
I1566
sS'realizwed'
p975
I2333
sS'andi'
p976
I1283
sS'vivid'
p977
I2073
sS'working'
p978
I284
sS'iphotos'
p979
I1816
sS'explantory'
p980
I599
sS'stated'
p981
I3079
sS'visit'
p982
I572
sVconnector
p983
I813
sS'msn'
p984
I1695
sS'live'
p985
I1883
sS'lauded'
p986
I1740
sS'iphone'
p987
I240
sS'memory'
p988
I454
sS'intel4000'
p989
I3171
sS'thru'
p990
I806
sS'household'
p991
I2940
sS'today'
p992
I564
sS'loving'
p993
I2214
sS'``'
p994
I36
sS'streamlined'
p995
I3046
sS'clicking'
p996
I1331
sS'flying'
p997
I3467
sS'acceptable'
p998
I2644
sS'apparent'
p999
I3465
sS'1,200'
p1000
I3333
sS'upgradable'
p1001
I1970
sS'visual'
p1002
I2900
sS'drown'
p1003
I2422
sS'everywhere'
p1004
I2183
sS'scratches'
p1005
I3199
sS'accustomed'
p1006
I3445
sS'effort'
p1007
I634
sS'easiest'
p1008
I883
sS'fly'
p1009
I2731
sS'graphic'
p1010
I1114
sS'soud'
p1011
I1312
sS'defeats'
p1012
I2956
sS'car'
p1013
I1286
sS'originally'
p1014
I1835
sS'array'
p1015
I2675
sS'reviews'
p1016
I3391
sS'wallet'
p1017
I648
sS'printing'
p1018
I2765
sS'can'
p1019
I205
sS'cam'
p1020
I808
sS'making'
p1021
I528
sS'arrive'
p1022
I3204
sS'logon'
p1023
I2355
sS'cad'
p1024
I2094
sS'heart'
p1025
I1184
sS'crazy'
p1026
I1305
sS'performer'
p1027
I3308
sS'corrupted'
p1028
I983
sS'figure'
p1029
I2526
sS'downfall'
p1030
I2029
sS'december'
p1031
I2842
sS'awesome'
p1032
I902
sS'heard'
p1033
I1975
sS'shorting'
p1034
I796
sS'hardrive'
p1035
I1664
sS'dropped'
p1036
I1802
sS'chic'
p1037
I1218
sS'requirements'
p1038
I2241
sS'secured'
p1039
I2725
sS'watching'
p1040
I1377
sS'freezes'
p1041
I427
sS'1'
I28
sS'wonderfull'
p1042
I2966
sS'vancouver'
p1043
I1107
sS'powerbooks'
p1044
I927
sS'pure'
p1045
I241
sS'firfox'
p1046
I769
sS'optimal'
p1047
I2901
sS'absolute'
p1048
I1776
sS'secures'
p1049
I1466
sS'belongs'
p1050
I2921
sS'product'
p1051
I939
sS'designer'
p1052
I3221
sS'explorer'
p1053
I1269
sS'crashes'
p1054
I268
sS'information'
p1055
I1980
sS'may'
p1056
I654
sS'max'
p1057
I541
sS'sp2'
p1058
I1138
sS'eighty'
p1059
I1909
sS'998'
p1060
I3316
sS'crashed'
p1061
I227
sS'mac'
p1062
I233
sS'designed'
p1063
I476
sS'fantasic'
p1064
I3040
sS'improving'
p1065
I1977
sS'such'
p1066
I784
sS'suck'
p1067
I2590
sS'data'
p1068
I1569
sS'compatibility'
p1069
I2034
sS'man'
p1070
I3188
sS'classroom'
p1071
I529
sS'surfing'
p1072
I1585
sS'remember'
p1073
I3216
sS'commodity'
p1074
I3115
sS'whenever'
p1075
I2080
sS'maybe'
p1076
I694
sS'wheelchair'
p1077
I2360
sS'ghz'
p1078
I949
sS'complaining'
p1079
I2718
sS'switch'
p1080
I1093
sS'so'
p1081
I160
sS'automatically'
p1082
I2870
sS'welcome'
p1083
I2846
sVpulled
p1084
I1608
sS'talk'
p1085
I243
sS'sd'
p1086
I1285
sS'refund'
p1087
I971
sS'grafics'
p1088
I2301
sS'seeing'
p1089
I2454
sS'webpage'
p1090
I1968
sS'gradual'
p1091
I2539
sS'pointed'
p1092
I975
sS'mainly'
p1093
I405
sS'spreadsheets'
p1094
I2330
sS'years'
p1095
I1239
sS'stability'
p1096
I1918
sS'course'
p1097
I840
sS'still'
p1098
I386
sS'pointer'
p1099
I2933
sS'blocked'
p1100
I1967
sS'group'
p1101
I2927
sS'monitor'
p1102
I257
sS'how'
p1103
I962
sS'lackluster'
p1104
I1851
sS'interesting'
p1105
I1028
sS'torn'
p1106
I2202
sS'hot'
p1107
I937
sS'window'
p1108
I2023
sS'offers'
p1109
I80
sS'policy'
p1110
I2167
sS'decreased'
p1111
I1452
sS'main'
p1112
I1468
sS'happened'
p1113
I2932
sS'non'
p1114
I1621
sS'within'
p1115
I480
sS'recipients'
p1116
I1366
sS'matches'
p1117
I3205
sS'ddr3'
p1118
I1945
sS'bein'
p1119
I1663
sS'killer'
p1120
I52
sS'ddr5'
p1121
I1944
sS'applecare'
p1122
I2091
sS'safari'
p1123
I766
sS'half'
p1124
I1727
sS'not'
p1125
I26
sS'now'
p1126
I249
sS'nor'
p1127
I3250
sS'matched'
p1128
I2960
sS'wont'
p1129
I1295
sS'superlatives'
p1130
I3146
sS'name'
p1131
I2637
sS'drop'
p1132
I826
sS'rock'
p1133
I2763
sVentirely
p1134
I2990
sS'quarter'
p1135
I3377
sS'repaired'
p1136
I395
sS'prompted'
p1137
I1023
sS'badly'
p1138
I606
sS'hiccups'
p1139
I1704
sS'eg'
p1140
I3248
sS'receipt'
p1141
I2182
sS'yeah'
p1142
I504
sS'fires'
p1143
I1300
sS'ex'
p1144
I1698
sS'year'
p1145
I848
sS'happen'
p1146
I3252
sS'summary'
p1147
I2496
sS'monitors'
p1148
I3382
sS'shown'
p1149
I1891
sS'opened'
p1150
I1620
sS'3rd'
p1151
I1560
sS'space'
p1152
I1409
sS'rounding'
p1153
I2711
sS'furthermore'
p1154
I3388
sS'799'
p1155
I3321
sS'increase'
p1156
I460
sS'attracted'
p1157
I2609
sS'seriously'
p1158
I3300
sS'navigating'
p1159
I1530
sS'internet'
p1160
I407
sS'correct'
p1161
I2102
sS'assurance'
p1162
I542
sS'shows'
p1163
I899
sS'maneuver'
p1164
I2937
sVearlier
p1165
I2998
sS'monster'
p1166
I2624
sS'quite'
p1167
I1160
sS'recordings'
p1168
I2377
sS'advantages'
p1169
I1247
sS'lump'
p1170
I3378
sS'besides'
p1171
I2411
sVquits
p1172
I1651
sS'seventy'
p1173
I1113
sS'card'
p1174
I342
sS'care'
p1175
I1347
sS'bloatware'
p1176
I1199
sS'cycles'
p1177
I1930
sS'transition'
p1178
I1497
sS'programming'
p1179
I1856
sS'routed'
p1180
I1264
sVturn
p1181
I99
sS'place'
p1182
I674
sVhusband
p1183
I1607
sS'router'
p1184
I2060
sS'promotion'
p1185
I1874
sS'associates'
p1186
I3093
sS'think'
p1187
I1043
sS'waited'
p1188
I1046
sS'first'
p1189
I818
sS'intuition'
p1190
I3085
sS'note'
p1191
I1354
sS'saving'
p1192
I964
sS'clause'
p1193
I544
sS'variables'
p1194
I3281
sS'distan'
p1195
I1602
sS'one'
p1196
I77
sS'reopen'
p1197
I3395
sS'insist'
p1198
I2724
sS'fast'
p1199
I382
sS'directly'
p1200
I303
sS'overheating'
p1201
I1900
sS'carry'
p1202
I696
sS'impossible'
p1203
I3371
sS'xp'
p1204
I609
sS'lags'
p1205
I2909
sS'open'
p1206
I384
sS'xt'
p1207
I3361
sS'size'
p1208
I855
sS'little'
p1209
I633
sS'checked'
p1210
I3042
sS'silent'
p1211
I3261
sS'width'
p1212
I2443
sS'waned'
p1213
I3149
sS'caught'
p1214
I753
sVplastic
p1215
I868
sS'anyone'
p1216
I1099
sS'indicate'
p1217
I3124
sS'cooling'
p1218
I624
sS'2'
I141
sS'tell'
p1219
I1367
sS'typing'
p1220
I615
sS'white'
p1221
I639
sS'frame'
p1222
I1505
sS'speaking'
p1223
I366
sS'gives'
p1224
I1410
sS'm60'
p1225
I2839
sS'eyes'
p1226
I262
sS'inefficient'
p1227
I645
sS'mostly'
p1228
I824
sS'that'
p1229
I79
sVproving
p1230
I3045
sS'eliminates'
p1231
I2945
sS'released'
p1232
I3469
sS'ridiculous'
p1233
I1056
sS'editions'
p1234
I2489
sS'quad'
p1235
I635
sS'copy'
p1236
I2090
sS'than'
p1237
I197
sS'boyfriend'
p1238
I2451
sS'11'
p1239
I1553
sS'10'
p1240
I522
sS'13'
p1241
I116
sS'12'
p1242
I1713
sS'15'
p1243
I1007
sS'effective'
p1244
I1907
sS'17'
p1245
I1431
sS'16'
p1246
I1263
sS'18'
p1247
I1843
sS'require'
p1248
I1789
sS"n'ts"
p1249
I2389
sS'gobs'
p1250
I644
sS'apples'
p1251
I764
sS'were'
p1252
I478
sS'cards'
p1253
I133
sS'accessed'
p1254
I3344
sS'happy'
p1255
I388
sS'securitysoftware'
p1256
I1581
sS'proactive'
p1257
I2537
sS'browser'
p1258
I367
sS'and'
p1259
I6
sS'nicer'
p1260
I738
sS'pro'
p1261
I123
sVturned
p1262
I91
sVovernight
p1263
I2576
sS'recovey'
p1264
I2119
sS'quicly'
p1265
I671
sS'say'
p1266
I1088
sS'sells'
p1267
I1132
sS'saw'
p1268
I2497
sS'any'
p1269
I207
sS'speakers'
p1270
I1531
sS'efficient'
p1271
I1912
sS'transcription'
p1272
I2804
sS'answering'
p1273
I1278
sS'upgrading'
p1274
I1318
sS'aside'
p1275
I2285
sVshocked
p1276
I1606
sS'terrific'
p1277
I787
sS'equipment'
p1278
I2512
sS'ideal'
p1279
I1636
sS'squad'
p1280
I973
sS'take'
p1281
I247
sS'online'
p1282
I745
sS'performance'
p1283
I783
sS'wonder'
p1284
I1960
sS'2big'
p1285
I1289
sS'1,700'
p1286
I1595
sS'surf'
p1287
I2822
sS'200'
p1288
I1780
sS'begin'
p1289
I2569
sS'printer'
p1290
I1103
sS'multiple'
p1291
I1613
sS'opposite'
p1292
I1523
sS'track'
p1293
I558
sS'price'
p1294
I291
sS'knew'
p1295
I237
sS'paid'
p1296
I569
sS'insanity'
p1297
I2687
sS'beta'
p1298
I1857
sS'importantly'
p1299
I1447
sS'complaints'
p1300
I692
sS']'
I2148
sS'pages'
p1301
I1418
sS'icon'
p1302
I2690
sS'26th'
p1303
I2258
sS'forever'
p1304
I248
sS'operate'
p1305
I2309
sS'especially'
p1306
I857
sS'flawlessly'
p1307
I1204
sVconsidered
p1308
I2495
sS'dream'
p1309
I2429
sS'average'
p1310
I596
sS'later'
p1311
I653
sVsteady
p1312
I107
sVdrive
p1313
I109
sS'8mb'
p1314
I3411
sS'ways'
p1315
I3464
sS'nortell'
p1316
I1989
sS'professional'
p1317
I1320
sS'senior'
p1318
I2560
sS'typically'
p1319
I1792
sS'reflectiveness'
p1320
I2882
sS'shop'
p1321
I44
sS'lexicon'
p1322
I854
sVshot
p1323
I2300
sS'show'
p1324
I1440
sS'cheap'
p1325
I1563
sS'spyware'
p1326
I2511
sS'crutchs'
p1327
I2359
sS'discovered'
p1328
I1167
sS'bright'
p1329
I874
sS'spaces'
p1330
I1630
sS'hack'
p1331
I1941
sS'corner'
p1332
I3232
sS'forecast'
p1333
I2163
sS'imagined'
p1334
I2130
sS'ground'
p1335
I1191
sS'enthusiast'
p1336
I2286
sS'upgrade'
p1337
I500
sS'ratio'
p1338
I1400
sS'favor'
p1339
I2250
sVrecomended
p1340
I2969
sS'daily'
p1341
I2777
sS'outside'
p1342
I556
sS'only'
p1343
I114
sS'going'
p1344
I562
sVblack
p1345
I1156
sS'equipped'
p1346
I2647
sS'lighted'
p1347
I2905
sS'directed'
p1348
I2809
sS'exaggeration'
p1349
I1955
sS'get'
p1350
I168
sS'freezing'
p1351
I1302
sS'expectation'
p1352
I202
sS'truly'
p1353
I1385
sS'cursing'
p1354
I1821
sS'nearly'
p1355
I1201
sS'lighter'
p1356
I1517
sS'navigates'
p1357
I2342
sS'ssd'
p1358
I3197
sS'installed'
p1359
I222
sVfreaking
p1360
I92
sS'mavericks'
p1361
I3193
sS'aluminum'
p1362
I1376
sS'settings'
p1363
I1557
sS'leather'
p1364
I3106
sS'hinges'
p1365
I1748
sS'isnt'
p1366
I2509
sS'morning'
p1367
I1301
sS'stupid'
p1368
I1931
sS'dough'
p1369
I1208
sS'bought'
p1370
I45
sS'where'
p1371
I672
sS'worrying'
p1372
I2369
sS'mozzilla'
p1373
I768
sS'microphones'
p1374
I3439
sS'honesty'
p1375
I3076
sS'comparable'
p1376
I2070
sS'bounds'
p1377
I1227
sS'connections'
p1378
I2213
sS'rma'
p1379
I1678
sS'college'
p1380
I1484
sS'anyways'
p1381
I1338
sS'seal'
p1382
I171
sS'calendar'
p1383
I2164
sS'concern'
p1384
I35
sS'830'
p1385
I3196
sS'detect'
p1386
I2155
sS'alienware'
p1387
I3443
sS'managing'
p1388
I408
sS'jumped'
p1389
I1667
sS'review'
p1390
I2753
sS'boy'
p1391
I3100
sS'sites'
p1392
I2556
sS'label'
p1393
I1685
sS'3'
I690
sS'tea'
p1394
I2912
sS'between'
p1395
I1189
sS'streaming'
p1396
I3279
sS'import'
p1397
I1257
sVuninstalled
p1398
I1652
sS'reading'
p1399
I1004
sS'browsers'
p1400
I2217
sS'august'
p1401
I2259
sS'messed'
p1402
I1579
sS'scanning'
p1403
I3224
sS'comp'
p1404
I2737
sVscreen
p1405
I102
sS'coloful'
p1406
I3074
sS'macconnection'
p1407
I2486
sVblame
p1408
I2968
sS'27'
p1409
I3283
sVcome
p1410
I1353
sS'pixels'
p1411
I2854
sS'coupons'
p1412
I2824
sS'postage'
p1413
I1002
sS'lowan'
p1414
I3428
sS'installation'
p1415
I775
sS'many'
p1416
I90
sS'quiet'
p1417
I614
sS'enabling'
p1418
I552
sS'somewhere'
p1419
I2564
sS's'
I1937
sS'disappointment'
p1420
I115
sS'backpack'
p1421
I2361
sS'comes'
p1422
I416
sS'duty'
p1423
I1413
sS'among'
p1424
I3110
sS'lacie'
p1425
I1288
sS'firewall'
p1426
I1036
sS'endless'
p1427
I3208
sS'period'
p1428
I2988
sS'pop'
p1429
I1966
sS','
I40
sS'60'
p1430
I1690
sS'twin'
p1431
I1212
sS'65'
p1432
I2982
sS'learning'
p1433
I908
sS'cancel'
p1434
I2188
sS'ordered'
p1435
I833
sS'consider'
p1436
I1487
sS'noisy'
p1437
I2002
sS'caring'
p1438
I1485
sS'destroyed'
p1439
I1325
sS'narcissist'
p1440
I2462
sS'cares'
p1441
I859
sS'west'
p1442
I2532
sS'locally'
p1443
I839
sS'informed'
p1444
I3200
sS'netbooks'
p1445
I711
sS'mark'
p1446
I2200
sS'combined'
p1447
I1741
sS'cords'
p1448
I1326
sS'hardly'
p1449
I2364
sS'wants'
p1450
I1818
sS'direction'
p1451
I977
sS'enable'
p1452
I2548
sS'shopping'
p1453
I1623
sS'offered'
p1454
I1130
sV400
p1455
I1657
sS'antivirus'
p1456
I1035
sS'laptops'
p1457
I72
sS'photos'
p1458
I1706
sS'reallythe'
p1459
I1223
sS'external'
p1460
I182
sS'squirrely'
p1461
I3393
sS'isolator'
p1462
I1193
sS'those'
p1463
I1092
sS'sound'
p1464
I496
sS'myself'
p1465
I1768
sS'developing'
p1466
I3271
sS'these'
p1467
I153
sS'operational'
p1468
I1148
sS'owc'
p1469
I3363
sS'worried'
p1470
I2834
sS'cash'
p1471
I1280
sS'resturant'
p1472
I2477
sS"n't"
p1473
I505
sS'hdd'
p1474
I1465
sS'1100'
p1475
I3312
sVsituation
p1476
I1896
sS'margin'
p1477
I1728
sS'spotlight'
p1478
I1073
sS'ive'
p1479
I1697
sS'aluminium'
p1480
I3350
sS'eventually'
p1481
I545
sS'secondary'
p1482
I1934
sS'chiclet'
p1483
I933
sS'middle'
p1484
I1374
sS'someone'
p1485
I1570
sS'loosing'
p1486
I2419
sS'technology'
p1487
I689
sS'everyday'
p1488
I2400
sS'worry'
p1489
I1034
sS'bags'
p1490
I2987
sVdifferent
p1491
I1351
sS'ingrained'
p1492
I852
sS'projector'
p1493
I3051
sS'april'
p1494
I592
sS'pay'
p1495
I621
sS'granted'
p1496
I747
sS'locking'
p1497
I2320
sS'amateurs'
p1498
I1984
sS'same'
p1499
I148
sS'trip'
p1500
I2504
sS'html'
p1501
I1855
sS'pad'
p1502
I709
sS'document'
p1503
I1081
sS'week'
p1504
I589
sS'visually'
p1505
I2657
sS'extended'
p1506
I449
sS'thunderbolt'
p1507
I1644
sS'downloads'
p1508
I1584
sS'driver'
p1509
I773
sS'drives'
p1510
I1304
sS'wpm'
p1511
I701
sS'running'
p1512
I221
sS'edges'
p1513
I1813
sS'wired'
p1514
I1334
sS'two'
p1515
I1224
sS'footprint'
p1516
I3262
sS'%'
I1427
sS'anticipated'
p1517
I3218
sS'totally'
p1518
I2503
sS'interneting'
p1519
I3134
sS'complained'
p1520
I3468
sS'mc309ll'
p1521
I3320
sS'tracking'
p1522
I178
sS'dying'
p1523
I683
sS'charges'
p1524
I2607
sS'charger'
p1525
I420
sS'floor'
p1526
I2365
sS'substantive'
p1527
I2540
sS'objection'
p1528
I2801
sS'without'
p1529
I125
sS'solve'
p1530
I2192
sS'components'
p1531
I1173
sS'peripherals'
p1532
I3239
sS'model'
p1533
I117
sS'bumping'
p1534
I1643
sS'amazed'
p1535
I1507
sS'justify'
p1536
I969
sS'heaps'
p1537
I2672
sS'being'
p1538
I982
sS'knowledgeable'
p1539
I636
sS'hybrid'
p1540
I3362
sS'rest'
p1541
I1815
sS'reputable'
p1542
I2244
sS'aspect'
p1543
I2397
sS'touch'
p1544
I175
sVaccross
p1545
I1895
sS'speed'
p1546
I194
sS'blow'
p1547
I3351
sS'thinking'
p1548
I1905
sS'seems'
p1549
I550
sS'except'
p1550
I1405
sS'desktop'
p1551
I693
sS'ibookg4'
p1552
I2655
sS'color'
p1553
I657
sS'lets'
p1554
I2877
sS'interested'
p1555
I2415
sS'4'
I419
sS'constant'
p1556
I1770
sVflashing
p1557
I110
sS'sucked'
p1558
I2385
sS'real'
p1559
I1868
sS'aspects'
p1560
I2659
sS'around'
p1561
I697
sS'spectacular'
p1562
I2700
sS'read'
p1563
I887
sVdigital
p1564
I2995
sS'amd'
p1565
I878
sS'randomely'
p1566
I3047
sS'early'
p1567
I1018
sS'warehouse'
p1568
I3109
sS'avchd'
p1569
I631
sS'mom'
p1570
I2600
sVusing
p1571
I96
sS'innovations'
p1572
I2670
sS'disappointed'
p1573
I1152
sS'rear'
p1574
I3231
sS'intel'
p1575
I881
sS'inferior'
p1576
I3463
sS'pounds'
p1577
I651
sS'reduces'
p1578
I1729
sS'serves'
p1579
I2239
sS'server'
p1580
I3119
sS'maker'
p1581
I3084
sVt
I113
sS'robbery'
p1582
I602
sS'fully'
p1583
I1508
sS'output'
p1584
I913
sS'tower'
p1585
I1666
sS'reduced'
p1586
I3329
sS'cusromer'
p1587
I1373
sS'shunned'
p1588
I2287
sS'apologists'
p1589
I2348
sS'abilitiy'
p1590
I1072
sS'moving'
p1591
I2962
sS'overheated'
p1592
I2430
sS'competition'
p1593
I1700
sS'table'
p1594
I2479
sS'images'
p1595
I1646
sS'organizing'
p1596
I2004
sS'thinks'
p1597
I2407
sS'reasons'
p1598
I2907
sS'excelent'
p1599
I1313
sS'provided'
p1600
I3479
sS'tote'
p1601
I2825
sS'micro'
p1602
I2046
sS'slick'
p1603
I370
sS'stops'
p1604
I1384
sS'critical'
p1605
I3340
sS'provides'
p1606
I1086
sS'picks'
p1607
I2748
sS'moderate'
p1608
I1923
sS'quitting'
p1609
I2063
sVsignifant
p1610
I2955
sS'considering'
p1611
I2963
sS'football'
p1612
I2550
sVpower
p1613
I105
sS'asap'
p1614
I3408
sS'seconds'
p1615
I1009
sS'specks'
p1616
I2470
sS'communicate'
p1617
I2334
sVbroken
p1618
I871
sS'standpoint'
p1619
I759
sS'leftover'
p1620
I2776
sS'throw'
p1621
I1823
sS'manufacturer'
p1622
I2149
sS'comparison'
p1623
I662
sS'ok'
p1624
I355
sS'oh'
p1625
I503
sS'of'
p1626
I14
sS'industry'
p1627
I1860
sS'capable'
p1628
I1922
sS'favorite'
p1629
I723
sS'greater'
p1630
I2946
sS'laptopwas'
p1631
I3426
sS'stand'
p1632
I967
sS'mixed'
p1633
I3227
sVintalling
p1634
I2991
sS'desparation'
p1635
I326
sS'os'
p1636
I909
sS'processor'
p1637
I130
sS'road'
p1638
I576
sVresearching
p1639
I1893
sS'burning'
p1640
I1598
sS'coupon'
p1641
I3315
sS'communication'
p1642
I802
sS'image'
p1643
I1311
sS'screws'
p1644
I2702
sS'determine'
p1645
I734
sS'heated'
p1646
I462
sVhappening
p1647
I2137
sS'your'
p1648
I340
sS'stare'
p1649
I2141
sS'legacy'
p1650
I3243
sS'log'
p1651
I3132
sS'her'
p1652
I2603
sS'area'
p1653
I179
sS'there'
p1654
I344
sS'start'
p1655
I66
sS'low'
p1656
I1039
sS'stars'
p1657
I684
sS'worst'
p1658
I1879
sS'exceptional'
p1659
I2613
sS'1920x1080'
p1660
I2122
sS'complete'
p1661
I1522
sS'drains'
p1662
I647
sS'regard'
p1663
I3266
sS'mics'
p1664
I3214
sS'sophisticated'
p1665
I2606
sS'beginners'
p1666
I2666
sS'antiquated'
p1667
I1826
sS'unreliable'
p1668
I1143
sS'constandly'
p1669
I807
sS'with'
p1670
I11
sS'buying'
p1671
I838
sS'longer'
p1672
I138
sS'1024'
p1673
I1689
sS'default'
p1674
I917
sS'bucket'
p1675
I2858
sS'vhs'
p1676
I1858
sS'dirty'
p1677
I670
sS'manuel'
p1678
I2899
sS'gibberish'
p1679
I1368
sS'trips'
p1680
I1811
sS'expect'
p1681
I1844
sS'detailed'
p1682
I2897
sS'gone'
p1683
I2066
sS'ac'
p1684
I2530
sS'persoal'
p1685
I2381
sS'videos'
p1686
I1033
sS'certain'
p1687
I347
sS'am'
p1688
I196
sS'sales'
p1689
I37
sS'deep'
p1690
I2313
sS'general'
p1691
I627
sS'as'
p1692
I69
sS'reliability'
p1693
I2290
sS'at'
p1694
I4
sS'file'
p1695
I1079
sS'girlfriend'
p1696
I1674
sS'acer'
p1697
I534
sS'adsl'
p1698
I3385
sS'cables'
p1699
I3213
sS'film'
p1700
I2621
sS'incorrect'
p1701
I2924
sVagain
p1702
I490
sS'spice'
p1703
I2832
sS'imail'
p1704
I2009
sS'drivers'
p1705
I352
sS'storage'
p1706
I1071
sS'saturday'
p1707
I1686
sS'rubber'
p1708
I158
sS'valid'
p1709
I2269
sS'5'
I481
sS'core2'
p1710
I3023
sS'you'
p1711
I136
sS'trash'
p1712
I2922
sS'thousand'
p1713
I1387
sS'poor'
p1714
I1186
sS'aero'
p1715
I2771
sS'regardless'
p1716
I2054
sS'separate'
p1717
I1618
sS'students'
p1718
I1483
sS'2005'
p1719
I2843
sS'cordless'
p1720
I2100
sS'dies'
p1721
I3202
sS'important'
p1722
I999
sS'included'
p1723
I1237
sS'unresponsive'
p1724
I3286
sS'ridden'
p1725
I3352
sS'dabble'
p1726
I3455
sS'remote'
p1727
I1591
sVcalls
p1728
I1542
sS'wife'
p1729
I2741
sS'invest'
p1730
I2251
sS'wifi'
p1731
I1629
sS'curve'
p1732
I2329
sS'finished'
p1733
I2631
sS'websites'
p1734
I1763
sS'scroll'
p1735
I2022
sS'tightened'
p1736
I2625
sS'u'
I2273
sS'alright'
p1737
I557
sS'mean'
p1738
I3114
sS'resolution'
p1739
I792
sS'cpu'
p1740
I1827
sVall
p1741
I103
sS'forget'
p1742
I506
sS'caused'
p1743
I1139
sS'beware'
p1744
I1473
sS'lack'
p1745
I1806
sS'dollar'
p1746
I1781
sS'rmbp'
p1747
I3170
sS'abit'
p1748
I821
sS'month'
p1749
I413
sS'ceased'
p1750
I2036
sS'disc'
p1751
I346
sS'messy'
p1752
I3020
sS'disk'
p1753
I998
sS'children'
p1754
I1637
sS'causes'
p1755
I980
sS'hmmm'
p1756
I2640
sS'icons'
p1757
I2849
sS'tv'
p1758
I1268
sS'to'
p1759
I30
sS'program'
p1760
I383
sS'14'
p1761
I3056
sS'siblings'
p1762
I2379
sS'enjoying'
p1763
I1085
sS'presentation'
p1764
I2434
sS'paying'
p1765
I270
sS'fax'
p1766
I1395
sS'premium'
p1767
I970
sS'returned'
p1768
I736
sS'returning'
p1769
I1145
sS'very'
p1770
I60
sS'powerbook'
p1771
I876
sS'sons'
p1772
I3477
sS'fan'
p1773
I325
sS'decide'
p1774
I3032
sS'fall'
p1775
I2017
sS'awful'
p1776
I1562
sS'sony'
p1777
I1111
sS'difference'
p1778
I1935
sS'condition'
p1779
I1147
sS'acers'
p1780
I3158
sS'pre'
p1781
I1998
sS'cable'
p1782
I2465
sVlist
p1783
I2746
sS'convienent'
p1784
I2697
sS'large'
p1785
I177
sS'adjust'
p1786
I2567
sS'cluttered'
p1787
I2847
sS'booting'
p1788
I2008
sS'small'
p1789
I785
sS'typers'
p1790
I2074
sS'cookies'
p1791
I2279
sS'quicker'
p1792
I752
sS'portable'
p1793
I322
sS'ten'
p1794
I2651
sS'harder'
p1795
I2878
sS'past'
p1796
I381
sS'tey'
p1797
I2686
sS'rate'
p1798
I1271
sS'design'
p1799
I1234
sS'switchable'
p1800
I1442
sS'handles'
p1801
I3121
sS'turning'
p1802
I2264
sS'functioning'
p1803
I1720
sS'investment'
p1804
I1317
sS'quicken'
p1805
I3245
sS'cursor'
p1806
I2308
sS'what'
p1807
I993
sS'toshibas'
p1808
I819
sS'sub'
p1809
I1379
sS'clock'
p1810
I300
sVinvesting
p1811
I1510
sS'resume'
p1812
I2796
sS'brief'
p1813
I2738
sS'overload'
p1814
I1456
sS'version'
p1815
I984
sVapologized
p1816
I2577
sS'reproduction'
p1817
I2266
sS'learned'
p1818
I3007
sS'public'
p1819
I2295
sS'multitude'
p1820
I3000
sS'full'
p1821
I1095
sS'loose'
p1822
I1675
sS'component'
p1823
I2760
sS'hours'
p1824
I142
sS'sata'
p1825
I1920
sS'operating'
p1826
I288
sVnovember
p1827
I2989
sS'strong'
p1828
I2236
sS'search'
p1829
I1074
sS'ultra'
p1830
I3438
sS'ahead'
p1831
I1228
sS'difficulty'
p1832
I2668
sS'allows'
p1833
I434
sS'experience'
p1834
I1055
sS'pics'
p1835
I410
sS'amount'
p1836
I786
sS'arent'
p1837
I2561
sS'pick'
p1838
I1316
sS'action'
p1839
I1205
sVluck
p1840
I2474
sVoptions
p1841
I1671
sS'sticking'
p1842
I703
sS'invalidate'
p1843
I1478
sS'via'
p1844
I1202
sS'ilife'
p1845
I903
sS'unsatisfactory'
p1846
I2661
sS'suddenly'
p1847
I3228
sS'requiring'
p1848
I1633
sS'2x2gb'
p1849
I2727
sS'wiling'
p1850
I3094
sS'screens'
p1851
I2136
sVask
p1852
I1537
sS'aimed'
p1853
I2734
sS'select'
p1854
I2867
sS'flaws'
p1855
I1876
sS'takes'
p1856
I1063
sS'extender'
p1857
I3326
sS'wiped'
p1858
I754
sS'charge'
p1859
I2
sS'comparing'
p1860
I2194
sS'warrentys'
p1861
I997
sS'gorgeous'
p1862
I65
sVtaken
p1863
I1549
sS'homework'
p1864
I2588
sS'preloaded'
p1865
I289
sVminor
p1866
I2097
sS'more'
p1867
I86
sS'flat'
p1868
I2524
sS'flaw'
p1869
I1235
sS'door'
p1870
I1824
sS'company'
p1871
I1272
sS'surprisingly'
p1872
I3373
sS'landed'
p1873
I2235
sS'stick'
p1874
I1357
sS'broke'
p1875
I1369
sS'particular'
p1876
I1383
sS'known'
p1877
I2210
sS'hurry'
p1878
I3198
sS'quicklook'
p1879
I2671
sS'glad'
p1880
I1038
sS'hardware'
p1881
I425
sS'none'
p1882
I571
sS'hour'
p1883
I523
sS'recall'
p1884
I2573
sS'sucks'
p1885
I1648
sS'installing'
p1886
I2216
sS'caveat'
p1887
I861
sS'learn'
p1888
I1310
sS'dec'
p1889
I1512
sVhistory
p1890
I2745
sS'beautiful'
p1891
I1391
sS'compare'
p1892
I3059
sS'1x4gb'
p1893
I2729
sS'prompt'
p1894
I2838
sS'challenging'
p1895
I3019
sS'scan'
p1896
I376
sS'stacking'
p1897
I884
sS'suggestions'
p1898
I924
sS'accept'
p1899
I1450
sS'states'
p1900
I1885
sS'pushed'
p1901
I2125
sS'numbers'
p1902
I1419
sS'purchased'
p1903
I443
sS'sense'
p1904
I1251
sS'sharp'
p1905
I1197
sS'airplane'
p1906
I3002
sS'ati'
p1907
I2302
sS'reputation'
p1908
I2318
sS'!'
I87
sS'huge'
p1909
I1396
sS'needs'
p1910
I646
sS'processors'
p1911
I1265
sS'awkward'
p1912
I2910
sS'flawless'
p1913
I3253
sS'rather'
p1914
I945
sS'receptacle'
p1915
I3249
sS'utilize'
p1916
I2435
sS'ivy'
p1917
I3421
sS'justifies'
p1918
I3432
sS'occasionally'
p1919
I267
sS'seperately'
p1920
I1284
sS'explains'
p1921
I1919
sS'simplicity'
p1922
I2255
sS'okay'
p1923
I2456
sS'tried'
p1924
I708
sS'includes'
p1925
I3387
sS'weaknesses'
p1926
I3067
sS'hardcopy'
p1927
I2898
sS'par'
p1928
I1380
sS'connectivity'
p1929
I2031
sS'tries'
p1930
I2445
sS'plane'
p1931
I2873
sS'lighting'
p1932
I2885
sS'adventure'
p1933
I2766
sS'coming'
p1934
I2038
sS'shuts'
p1935
I1332
sS'sloppy'
p1936
I3452
sS'fm'
p1937
I915
sS'a'
I51
sS'refuse'
p1938
I3048
sS'short'
p1939
I1064
sS'onto'
p1940
I1897
sS'bugs'
p1941
I1364
sS'anytime'
p1942
I797
sS'shortening'
p1943
I3259
sS'keynotes'
p1944
I2722
sS'media'
p1945
I1738
sS'cs5'
p1946
I1734
sS'pleasure'
p1947
I242
sS'solidly'
p1948
I2520
sS'encased'
p1949
I156
sS'playing'
p1950
I532
sVuninstall
p1951
I2072
sS'photoshop'
p1952
I1577
sS'help'
p1953
I275
sS'enraged'
p1954
I1820
sS'developed'
p1955
I2275
sS'advised'
p1956
I3405
sS'soon'
p1957
I1166
sS'trade'
p1958
I135
sS'held'
p1959
I2230
sS'thermal'
p1960
I2346
sS'through'
p1961
I440
sS'booted'
p1962
I2219
sS'its'
p1963
I313
sS'dummies'
p1964
I3103
sV24
p1965
I2614
sS'25'
p1966
I1459
sS'style'
p1967
I663
sS'kardon'
p1968
I2841
sS'20'
p1969
I1008
sS'21'
p1970
I3430
sS'22'
p1971
I2321
sS'23'
p1972
I2168
sS'susceptible'
p1973
I1363
sS'pcs'
p1974
I471
sS'durability'
p1975
I2816
sS'actually'
p1976
I1611
sS'late'
p1977
I1680
sS'parts'
p1978
I2150
sS'systems'
p1979
I477
sS'bummer'
p1980
I950
sS'verginia'
p1981
I2533
sS'might'
p1982
I729
sS'colleague'
p1983
I3061
sS'good'
p1984
I15
sS'return'
p1985
I2166
sS'yo'
p1986
I3380
sS'food'
p1987
I2478
sS'propose'
p1988
I2518
sS'primary'
p1989
I1933
sS'walls'
p1990
I1979
sS'unacceptably'
p1991
I3368
sS'manylegacy'
p1992
I3246
sS'complain'
p1993
I1928
sS'bigger'
p1994
I727
sS'instructions'
p1995
I2305
sS'easily'
p1996
I910
sS'everytime'
p1997
I2218
sS'sundays'
p1998
I2549
sS'always'
p1999
I470
sS'accommodates'
p2000
I3039
sS'capability'
p2001
I1873
sS'tear'
p2002
I1445
sS'stopped'
p2003
I421
sS'turns'
p2004
I2232
sVfound
p2005
I866
sS'ports'
p2006
I931
sS'defects'
p2007
I2934
sS'heavy'
p2008
I951
sS'malfunction'
p2009
I625
sS'everyone'
p2010
I2406
sS'customization'
p2011
I3370
sS'weight'
p2012
I594
sS'generation'
p2013
I3420
sS'house'
p2014
I2128
sVhard
p2015
I108
sS'reduce'
p2016
I914
sS'idea'
p2017
I1429
sS'numeric'
p2018
I2199
sS'slowdown'
p2019
I2208
sS'wires'
p2020
I2051
sS'connect'
p2021
I484
sS'operation'
p2022
I1182
sS'beyond'
p2023
I1412
sS'thick'
p2024
I3181
sS'really'
p2025
I258
sS'inquired'
p2026
I1755
sS'demonstration'
p2027
I3335
sS'item'
p2028
I3257
sS'miss'
p2029
I3366
sS'since'
p2030
I287
sS'research'
p2031
I2013
sS'acting'
p2032
I1390
sS'safety'
p2033
I2225
sS'7'
I204
sS'print'
p2034
I2823
sS'issue'
p2035
I216
sS'bass'
p2036
I3448
sS'lights'
p2037
I3330
sS'friday'
p2038
I1681
sS'warrenty'
p2039
I387
sS'guess'
p2040
I830
sS'pleasant'
p2041
I2505
sS'iphoto'
p2042
I1423
sS'reason'
p2043
I1168
sS'base'
p2044
I862
sS'members'
p2045
I2336
sVimagine
p2046
I2521
sS'put'
p2047
I957
sS'laughable'
p2048
I2767
sS'beginning'
p2049
I2810
sS'loads'
p2050
I349
sS'wall'
p2051
I2751
sS'thrown'
p2052
I1253
sS'definition'
p2053
I2749
sS'benefits'
p2054
I2542
sS'launch'
p2055
I1438
sS'computers'
p2056
I668
sS'terrible'
p2057
I1219
sS'superfine'
p2058
I2709
sS'terribly'
p2059
I3418
sS'american'
p2060
I308
sS'fruit'
p2061
I2544
sS'expecting'
p2062
I234
sS'w'
I1596
sS'enough'
p2063
I1281
sS'radeon'
p2064
I1942
sS'trackpad'
p2065
I1011
sS'major'
p2066
I990
sS'dont'
p2067
I763
sS'feel'
p2068
I758
sS'number'
p2069
I330
sS'fancy'
p2070
I828
sS'happier'
p2071
I2803
sS'feet'
p2072
I1362
sS'dust'
p2073
I2471
sS'talked'
p2074
I1178
sS'done'
p2075
I777
sS'rails'
p2076
I1467
sS'says'
p2077
I2596
sVcrapy
p2078
I1538
sS'stage'
p2079
I2425
sS'razor'
p2080
I164
sS'esay'
p2081
I1120
sS'discussed'
p2082
I3060
sS'isolated'
p2083
I3082
sS'leading'
p2084
I1196
sS'least'
p2085
I966
sS'paint'
p2086
I986
sS'wonderful'
p2087
I1037
sS'statement'
p2088
I1953
sS'hundred'
p2089
I272
sS'finances'
p2090
I1571
sS'store'
p2091
I712
sVrewired
p2092
I2628
sS'selling'
p2093
I2416
sS'passed'
p2094
I2121
sS'behind'
p2095
I968
sS'gigabytes'
p2096
I456
sS'anodized'
p2097
I3346
sS'hotel'
p2098
I3003
sS'unpdate'
p2099
I1052
sS'luckily'
p2100
I3136
sS'part'
p2101
I724
sS'sold'
p2102
I3462
sS'tft'
p2103
I1723
sS'believe'
p2104
I601
sS'endlessly'
p2105
I3429
sS'grace'
p2106
I965
sS'kind'
p2107
I1329
sS'grew'
p2108
I3444
sS'compliments'
p2109
I2437
sS'gotten'
p2110
I2195
sS'recording'
p2111
I3293
sS'harman'
p2112
I2840
sS'supposed'
p2113
I2482
sS'dang'
p2114
I1463
sS'seamlessly'
p2115
I1949
sS'gps'
p2116
I3090
sS'treated'
p2117
I1805
sS'haswell'
p2118
I3423
sS'deciding'
p2119
I3331
sS'92'
p2120
I2728
sS'uncomfortable'
p2121
I1812
sS'basically'
p2122
I2821
sS'outstanding'
p2123
I1746
sS'syncing'
p2124
I245
sS'suspicious'
p2125
I2716
sS'defect'
p2126
I894
sS'randomly'
p2127
I2662
sS'juice'
p2128
I2386
sS'alike'
p2129
I1986
sS'sentences'
p2130
I1635
sS'cumbersome'
p2131
I3270
sS'splurged'
p2132
I3410
sS'option'
p2133
I2864
sS'lid'
p2134
I799
sS'lie'
p2135
I1956
sS'6750m'
p2136
I3322
sS'built'
p2137
I794
sS'zero'
p2138
I1803
sS'depending'
p2139
I1554
sS'superior'
p2140
I1725
sS'self'
p2141
I598
sS'lit'
p2142
I3031
sS'also'
p2143
I252
sS'accessories'
p2144
I2507
sS'internal'
p2145
I885
sS'useless'
p2146
I554
sS'finding'
p2147
I2706
sS'folders'
p2148
I1080
sS'play'
p2149
I743
sS'added'
p2150
I253
sS'macs'
p2151
I1842
sS'customize'
p2152
I3219
sS'350'
p2153
I2528
sS'affordability'
p2154
I2173
sS'unused'
p2155
I2280
sS'most'
p2156
I607
sS'virus'
p2157
I375
sS'74'
p2158
I2692
sS'charm'
p2159
I1123
sS'plan'
p2160
I2278
sS'nothing'
p2161
I790
sS'extremely'
p2162
I54
sS'stands'
p2163
I2315
sS'understands'
p2164
I2931
sS'breaker'
p2165
I3386
sS'sturdy'
p2166
I762
sS'mobile'
p2167
I1216
sS'clear'
p2168
I846
sVsometimes
p2169
I1154
sS'cover'
p2170
I1978
sS'clean'
p2171
I1647
sS'asus'
p2172
I147
sS'charged'
p2173
I603
sS'microsoft'
p2174
I231
sS'science'
p2175
I2586
sS'gold'
p2176
I2813
sS'restore'
p2177
I3211
sS'cds'
p2178
I1460
sVcarefully
p2179
I1894
sS'font'
p2180
I1348
sS'fine'
p2181
I667
sS'find'
p2182
I351
sS'costing'
p2183
I1386
sS'access'
p2184
I1804
sS'unusable'
p2185
I2356
sS'rocket'
p2186
I3338
sS'brackets'
p2187
I3105
sS'hope'
p2188
I1491
sS'rebooting'
p2189
I1993
sS'starters'
p2190
I1430
sS'failed'
p2191
I590
sS'backlighting'
p2192
I3075
sS'pretty'
p2193
I597
sS'money'
p2194
I568
sS'override'
p2195
I3070
sS'8'
I1067
sS'circle'
p2196
I2595
sS'peformance'
p2197
I2531
sS'touchscreen'
p2198
I3128
sS'his'
p2199
I921
sS'ceasing'
p2200
I2688
sS'financing'
p2201
I2412
sS'cheaper'
p2202
I1059
sS'feels'
p2203
I665
sS'fastest'
p2204
I3369
sS'closely'
p2205
I2193
sS'during'
p2206
I1599
sS'dose'
p2207
I1761
sS'emails'
p2208
I1586
sS'restart'
p2209
I2081
sS'resolve'
p2210
I2538
sS'remove'
p2211
I151
sS'inbuilt'
p2212
I1022
sS'common'
p2213
I981
sS'activity'
p2214
I1799
sS'x'
I906
sS'obscure'
p2215
I3230
sS'bulky'
p2216
I1236
sS'nortons'
p2217
I1500
sS'bars'
p2218
I2113
sS'set'
p2219
I535
sS'art'
p2220
I2396
sS'representive'
p2221
I600
sS'supporting'
p2222
I3414
sS'downfalls'
p2223
I2712
sS'uses'
p2224
I549
sS'lion'
p2225
I1328
sS'engineers'
p2226
I3133
sS'are'
p2227
I155
sS'close'
p2228
I1676
sS'arm'
p2229
I2180
sS'repairs'
p2230
I2559
sS'#'
I1126
sS'pictures'
p2231
I583
sS'wow'
p2232
I3456
sS'currently'
p2233
I1619
sS'burner'
p2234
I1161
sS'crisp'
p2235
I877
sS'ichat'
p2236
I82
sS'classes'
p2237
I2106
sS'myriad'
p2238
I979
sS'probably'
p2239
I1417
sVburned
p2240
I1716
sS'numerous'
p2241
I295
sS'available'
p2242
I539
sS'momentus'
p2243
I3360
sS'recently'
p2244
I2350
sS'creating'
p2245
I961
sS'missing'
p2246
I930
sS'interfaces'
p2247
I2289
sS'attention'
p2248
I1915
sS'4gb'
p2249
I1578
sS'incident'
p2250
I3083
sS'response'
p2251
I2604
sS'interface'
p2252
I1015
sS'both'
p2253
I1296
sS'feeling'
p2254
I3098
sS'last'
p2255
I1238
sS'fiance'
p2256
I803
sS'carelessness'
p2257
I1446
sS'barely'
p2258
I206
sVexplore
p2259
I1654
sS'craftmanship'
p2260
I3180
sS'sensitive'
p2261
I2977
sS'connection'
p2262
I2055
sS'became'
p2263
I1859
sValot
p2264
I2579
sS'focused'
p2265
I2605
sS'protector'
p2266
I953
sS'whole'
p2267
I1054
sS'upgraded'
p2268
I453
sS'liked'
p2269
I1225
sVsupply
p2270
I814
sS'battery'
p2271
I16
sS'sweet'
p2272
I1443
sVwhatever
p2273
I1655
sS'reccomend'
p2274
I2827
sS'simply'
p2275
I1075
sS'shutdown'
p2276
I2795
sS'linux'
p2277
I1248
sVsing
p2278
I2758
sS'slots'
p2279
I2466
sS'improvement'
p2280
I2944
sS'['
I2147
sS'expensive'
p2281
I507
sS'patiently'
p2282
I2099
sS'decline'
p2283
I3392
sS'consuming'
p2284
I2480
sVfused
p2285
I1717
sS'create'
p2286
I2314
sS'filemaker'
p2287
I3244
sS'due'
p2288
I810
sS'bluescreened'
p2289
I2679
sS'pc'
p2290
I238
sVdropping
p2291
I1433
sS'damn'
p2292
I1588
sS'intrusive'
p2293
I1583
sS'softwares'
p2294
I3413
sS'expensve'
p2295
I2918
sS'modern'
p2296
I2240
sS'flight'
p2297
I1808
sS'83'
p2298
I3024
sS'fire'
p2299
I2372
sS'convert'
p2300
I1840
sS'imac'
p2301
I547
sS'else'
p2302
I791
sS'moment'
p2303
I3058
sS'usage'
p2304
I2319
sS'38'
p2305
I2979
sS'understand'
p2306
I920
sS'demand'
p2307
I2294
sS'compatable'
p2308
I1308
sS'extensive'
p2309
I2485
sS'honest'
p2310
I2033
sS'presses'
p2311
I3142
sS'practicality'
p2312
I3381
sS'reinstalled'
p2313
I1850
sS'look'
p2314
I380
sVoutperforms
p2315
I3077
sS'solid'
p2316
I1745
sS'reliable'
p2317
I585
sS'tip'
p2318
I1661
sS'itthe'
p2319
I3005
sS'twenty'
p2320
I2169
sS'receive'
p2321
I1669
sS'while'
p2322
I963
sVreplaced
p2323
I491
sS'pressed'
p2324
I2110
sS'error'
p2325
I629
sS'fun'
p2326
I1699
sS'loop'
p2327
I1192
sS'pack'
p2328
I1206
sS'grip'
p2329
I3435
sS'shoddy'
p2330
I622
sS'hoping'
p2331
I577
sS'7hrs'
p2332
I1495
sS'calculator'
p2333
I2161
sS'cleaned'
p2334
I1865
sS'obtrusive'
p2335
I2808
sS'disappointing'
p2336
I1972
sS'itself'
p2337
I373
sS'phonecalls'
p2338
I3080
sS'owes'
p2339
I691
sS'skype'
p2340
I1462
sS'ready'
p2341
I343
sS'rig'
p2342
I2811
sS'kernal'
p2343
I2695
sS'funny'
p2344
I2552
sS'sounding'
p2345
I3449
sS'baseline'
p2346
I3332
sVanymore
p2347
I1552
sS'shorter'
p2348
I1299
sS'guarentee'
p2349
I1952
sS'virtually'
p2350
I3334
sS'grand'
p2351
I1469
sS'9'
I377
sS'resulting'
p2352
I2985
sS'relatively'
p2353
I1957
sS'dualboot'
p2354
I1494
sS'higher'
p2355
I1172
sS'development'
p2356
I2398
sS'sell'
p2357
I3210
sS'used'
p2358
I246
sS'temporary'
p2359
I1752
sS'mountain'
p2360
I3140
sS'keys'
p2361
I659
sS'painless'
p2362
I244
sS'leopard'
p2363
I905
sS'helped'
p2364
I2892
sS'walmart'
p2365
I2498
sS'leaps'
p2366
I1226
sS'user'
p2367
I864
sS'500gb'
p2368
I1773
sS'robust'
p2369
I2830
sS'noticeably'
p2370
I751
sS'recent'
p2371
I2656
sS'bellying'
p2372
I518
sS'touchpad'
p2373
I488
sS'lower'
p2374
I1568
sS'bookkeeping'
p2375
I2770
sS'iweb'
p2376
I1668
sS'older'
p2377
I926
sS'studies'
p2378
I2516
sS'refute'
p2379
I3153
sS'spent'
p2380
I361
sS'iffy'
p2381
I1049
sS'obviously'
p2382
I1013
sS'person'
p2383
I1406
sS'2gb'
p2384
I1355
sS'edge'
p2385
I165
sS'luxury'
p2386
I3028
sS'y'
I2806
sS'unparalleled'
p2387
I2817
sS'spend'
p2388
I398
sS'powering'
p2389
I2459
sS'ergonomic'
p2390
I1524
sS'gripe'
p2391
I3454
sS'competitive'
p2392
I2058
sS'snow'
p2393
I904
sS'questions'
p2394
I2891
sS'world'
p2395
I1561
sS'useful'
p2396
I1292
sS'cut'
p2397
I1693
sS'helping'
p2398
I2417
sS'$'
I400
sS'tablet'
p2399
I2800
sS'hated'
p2400
I1230
sS'spills'
p2401
I3163
sS'1070'
p2402
I3317
sS'signals'
p2403
I1610
sS'snappy'
p2404
I3328
sS'parents'
p2405
I1573
sS'snap'
p2406
I251
sS'schoolwork'
p2407
I1232
sS'remaining'
p2408
I2115
sS'surprised'
p2409
I2747
sS'build'
p2410
I1378
sS'ridiculously'
p2411
I1904
sS'dependability'
p2412
I1890
sS'customers'
p2413
I619
sS'lacking'
p2414
I1976
sVformat
p2415
I2996
sVbig
p2416
I1540
sS'couple'
p2417
I280
sS'1098'
p2418
I3314
sS'imovie'
p2419
I844
sVcoupla
p2420
I1398
sS'game'
p2421
I1306
sS'damage'
p2422
I891
sS'bit'
p2423
I761
sS'buddy'
p2424
I3223
sS'projects'
p2425
I1948
sS'like'
p2426
I81
sS'd'
I756
sS'semi'
p2427
I2654
sS'shaped'
p2428
I3066
sS'message'
p2429
I1341
sS'disks'
p2430
I3212
sS'translates'
p2431
I2317
sS'unstable'
p2432
I1760
sS'macbooks'
p2433
I154
sS'eee'
p2434
I2112
sS'alexandra'
p2435
I575
sS'essential'
p2436
I1098
sS'google'
p2437
I2393
sS'often'
p2438
I2233
sS'absolutely'
p2439
I64
sS'spring'
p2440
I3165
sS'downwards'
p2441
I2207
sS'some'
p2442
I293
sS'back'
p2443
I145
sS'pricetag'
p2444
I717
sS'towards'
p2445
I1983
sS'pricing'
p2446
I2057
sS'trendy'
p2447
I1932
sS'ontop'
p2448
I1382
sS'delivered'
p2449
I2027
sS'scale'
p2450
I2357
sS'512mb'
p2451
I3323
sS'tools'
p2452
I2160
sS'decision'
p2453
I938
sS'pros'
p2454
I1926
sS'4mb'
p2455
I3412
sS'pounding'
p2456
I3434
sS'connecting'
p2457
I2059
sS'innovation'
p2458
I960
sS'connectio'
p2459
I2611
sS'minimal'
p2460
I714
sS'either'
p2461
I2154
sS'be'
p2462
I306
sS'inconvenience'
p2463
I2883
sS'run'
p2464
I435
sS'300'
p2465
I2092
sS'jumps'
p2466
I2075
sS'processing'
p2467
I560
sS'confidence'
p2468
I3147
sS'refused'
p2469
I450
sS'assists'
p2470
I1040
sS'nowhere'
p2471
I1732
sS'lasts'
p2472
I2602
sS'crap'
p2473
I1471
sS'by'
p2474
I436
sS'toshib'
p2475
I2815
sS'cubersome'
p2476
I2802
sS'anything'
p2477
I1005
sS'flatline'
p2478
I2805
sS'75'
p2479
I2096
sS'audible'
p2480
I3288
sS'hinge'
p2481
I578
sS'range'
p2482
I1195
sS'involving'
p2483
I3264
sS'idk'
p2484
I2513
sS'experiences'
p2485
I1104
sV1gb
p2486
I2880
sS'block'
p2487
I1349
sS'surprises'
p2488
I3460
sS'repair'
p2489
I1151
sS'letter'
p2490
I2117
sS'techie'
p2491
I305
sS'into'
p2492
I1179
sS'recreate'
p2493
I892
sS'satisfactory'
p2494
I2296
sS'framed'
p2495
I1726
sVservices
p2496
I1543
sS'troubleshooting'
p2497
I3383
sS'contributor'
p2498
I2395
sS'rolls'
p2499
I2311
sS'impressed'
p2500
I782
sS'consistancy'
p2501
I1762
sVstory
p2502
I1536
sS'arcade'
p2503
I1222
sS'spending'
p2504
I735
sS'apparently'
p2505
I2344
sS'exposed'
p2506
I2780
sS'question'
p2507
I2583
sS'assuring'
p2508
I1146
sS'long'
p2509
I464
sS'custom'
p2510
I919
sS'bios'
p2511
I301
sS'doubt'
p2512
I2649
sS'forward'
p2513
I512
sS':'
I856
sS'opposed'
p2514
I916
sS'files'
p2515
I353
sS'considerably'
p2516
I3311
sVplunge
p2517
I1436
sS'elsewhere'
p2518
I2494
sS'adjusting'
p2519
I3215
sS'inept'
p2520
I1276
sS'comouter'
p2521
I1511
sS'hoped'
p2522
I757
sS'properly'
p2523
I212
sS'crank'
p2524
I2887
sS'newer'
p2525
I294
sS'line'
p2526
I124
sS'crapped'
p2527
I482
sS'deployed'
p2528
I804
sS'posted'
p2529
I3178
sS'info'
p2530
I2694
sS'ux'
p2531
I3192
sS'intuitive'
p2532
I479
sS'reload'
p2533
I1441
sS'sounds'
p2534
I3295
sS'incase'
p2535
I3037
sS'up'
p2536
I67
sS'us'
p2537
I1057
sS'planet'
p2538
I2948
sS'windows'
p2539
I203
sS'expese'
p2540
I2769
sVfried
p2541
I1605
sS'similar'
p2542
I2331
sS'called'
p2543
I327
sS'priviledge'
p2544
I335
sS'iworks'
p2545
I2078
sS'associated'
p2546
I1315
sS'shortcuts'
p2547
I2616
sS'influence'
p2548
I1499
sS'package'
p2549
I3324
sS'reopening'
p2550
I2447
sS'single'
p2551
I770
sS'warning'
p2552
I1333
sS'chat'
p2553
I1048
sS'hissing'
p2554
I1771
sS'facebook'
p2555
I582
sS'coder'
p2556
I3222
sVcodes
p2557
I2954
sS'lemon'
p2558
I543
sS'amounts'
p2559
I605
sS'fixing'
p2560
I2418
sS'thanks'
p2561
I3194
sS'plugged'
p2562
I223
sS'occasional'
p2563
I1829
sS'application'
p2564
I2085
sS'defrags'
p2565
I372
sS'functionality'
p2566
I2254
sS'recognition'
p2567
I2354
sS'department'
p2568
I992
sS'dv4'
p2569
I2281
sVirreplaceable
p2570
I2828
sS'nice'
p2571
I901
sS'users'
p2572
I1157
sS'accidental'
p2573
I3160
sS'sdxc'
p2574
I3173
sS'problems'
p2575
I369
sS'replace'
p2576
I277
sS'drag'
p2577
I825
sS'graphically'
p2578
I1946
sS'utterly'
p2579
I3303
sS'resolutions'
p2580
I1807
sS'score'
p2581
I2820
sS'ago'
p2582
I282
sS'notch'
p2583
I1303
sS'e'
I2401
sS'vice'
p2584
I2349
sS'zooming'
p2585
I3073
sS'dvd'
p2586
I1101
sS'required'
p2587
I150
sS'youtube'
p2588
I2553
sS'walked'
p2589
I1109
sS'2003'
p2590
I3091
sV2000
p2591
I2953
sVliterally
p2592
I2757
sS'fresh'
p2593
I263
sS'2008'
p2594
I1513
sS'requires'
p2595
I1336
sS'having'
p2596
I181
sS'once'
p2597
I278
sS'essay'
p2598
I2652
sS'saying'
p2599
I2248
sS'issued'
p2600
I1682
sS'results'
p2601
I3307
sS'existing'
p2602
I1642
sS'softer'
p2603
I3030
sS'gb'
p2604
I1580
sS'go'
p2605
I423
sS'adjustment'
p2606
I946
sS'issues'
p2607
I551
sS'seemed'
p2608
I345
sS'compact'
p2609
I2414
sS'concerned'
p2610
I1836
sS'send'
p2611
I831
sS'intensive'
p2612
I2733
sS'helps'
p2613
I259
sS'stable'
p2614
I55
sS'suite'
p2615
I190
sS'dislike'
p2616
I2221
sS'include'
p2617
I1125
sS'laggy'
p2618
I2043
sS'friendly'
p2619
I1091
sS'sent'
p2620
I316
sS'g4'
p2621
I1010
sVtorture
p2622
I2788
sS'continues'
p2623
I2853
sS'putting'
p2624
I1343
sS'telling'
p2625
I3092
sVcontinued
p2626
I489
sS'entire'
p2627
I189
sS'button'
p2628
I1617
sS'underscores'
p2629
I403
sS'attempts'
p2630
I296
sS'try'
p2631
I2089
sVassignments
p2632
I2993
sVwarranties
p2633
I1548
sS'subwoofer'
p2634
I1532
sS'mobilize'
p2635
I3025
sS'havent'
p2636
I2020
sS'smaller'
p2637
I2783
sS'tinny'
p2638
I3450
sS'boots'
p2639
I750
sS'jump'
p2640
I2325
sS'video'
p2641
I1047
sS'booth'
p2642
I1422
sS'picked'
p2643
I911
sS'reflected'
p2644
I2642
sS'download'
p2645
I485
sS'odd'
p2646
I2906
sS'click'
p2647
I1902
sS'vmware'
p2648
I437
sS'index'
p2649
I2819
sS'business'
p2650
I1486
sVgiving
p2651
I1135
sS'networks'
p2652
I2578
sS'cell'
p2653
I1714
sS'waiting'
p2654
I1389
sS'inconvenienced'
p2655
I3021
sS'acually'
p2656
I2916
sS';'
I642
sS'1400'
p2657
I3480
sS'3g'
p2658
I1971
sS'3d'
p2659
I3310
sS'body'
p2660
I1026
sS'led'
p2661
I1402
sS'chose'
p2662
I638
sS'hdmi'
p2663
I1266
sS'exchange'
p2664
I31
sS'desired'
p2665
I3068
sS'packing'
p2666
I1213
sS'let'
p2667
I2189
sS'sink'
p2668
I2040
sS'others'
p2669
I1501
sS'dissuade'
p2670
I2947
sS'clicked'
p2671
I1999
sS'veryimportant'
p2672
I3461
sS'irritating'
p2673
I2205
sS'win7'
p2674
I2793
sS'settling'
p2675
I3269
sS'great'
p2676
I88
sS'casing'
p2677
I1604
sS'technical'
p2678
I364
sS'involved'
p2679
I2007
sS'30'
p2680
I255
sS'35'
p2681
I1454
sS'safely'
p2682
I3278
sS'products'
p2683
I623
sS'opinion'
p2684
I1229
sS'320gb'
p2685
I2490
sS'makes'
p2686
I1250
sS'honor'
p2687
I2245
sS'involves'
p2688
I1749
sS'thats'
p2689
I1240
sS'named'
p2690
I2545
sS'firefox'
p2691
I1694
sS'apple'
p2692
I516
sS'spy'
p2693
I1987
sS'win'
p2694
I2791
sS'app'
p2695
I1800
sS'dedicated'
p2696
I1790
sS'proprietary'
p2697
I2276
sS'bindings'
p2698
I1765
sS'complex'
p2699
I2893
sS'redo'
p2700
I1627
sS'gateway'
p2701
I1370
sS'technologically'
p2702
I1963
sS'use'
p2703
I63
sS'beachball'
p2704
I1798
sS'from'
p2705
I47
sS'usb'
p2706
I208
sS'readable'
p2707
I1841
sS'seamless'
p2708
I1558
sVnext
p2709
I97
sS'few'
p2710
I677
sS'duplicate'
p2711
I890
sS'camera'
p2712
I873
sS'toy'
p2713
I3069
sS'panel'
p2714
I1724
sS'chip'
p2715
I1165
sS'sort'
p2716
I1871
sS'clever'
p2717
I172
sS'motherboards'
p2718
I2525
sVon
p2719
I100
sS'started'
p2720
I418
sS'becomes'
p2721
I1012
sS'factor'
p2722
I664
sS'sister'
p2723
I1474
sS'unplug'
p2724
I2693
sS'integrate'
p2725
I3167
sS'carrying'
p2726
I3107
sS'actual'
p2727
I1863
sS'starter'
p2728
I1319
sS'boards'
p2729
I3473
sS'customer'
p2730
I329
sS'account'
p2731
I2127
sS'balls'
p2732
I2593
sS'portability'
p2733
I2134
sS'this'
p2734
I199
sS'harddrive'
p2735
I3229
sS'when'
p2736
I217
sS'discharges'
p2737
I2032
sS'<pad>'
p2738
I0
sS'anywhere'
p2739
I1127
sS'obvious'
p2740
I2107
sS'thin'
p2741
I2062
sS'island'
p2742
I2326
sS'meet'
p2743
I1210
sS'closing'
p2744
I2446
sS'drops'
p2745
I3162
sS'didnt'
p2746
I742
sS'performed'
p2747
I2337
sS'control'
p2748
I1665
sS'intall'
p2749
I2814
sS'tap'
p2750
I1244
sS'plate'
p2751
I2902
sS'process'
p2752
I1122
sS'lock'
p2753
I978
sS'slim'
p2754
I3131
sS'tax'
p2755
I836
sS'purposes'
p2756
I2399
sVpieces
p2757
I1352
sS'high'
p2758
I48
sS'itune'
p2759
I3209
sS'tag'
p2760
I907
sS'pulling'
p2761
I1327
sS'something'
p2762
I652
sS'tab'
p2763
I1719
sS'expandable'
p2764
I57
sS'voice'
p2765
I3292
sVserial
p2766
I1137
sS'hesitate'
p2767
I780
sS'united'
p2768
I1884
sS'docking'
p2769
I2428
sS'memorize'
p2770
I1658
sS'sit'
p2771
I2413
sS'produces'
p2772
I2630
sS'holds'
p2773
I1029
sVdelay
p2774
I2375
sS'located'
p2775
I3251
sS'pair'
p2776
I2875
sS'attachment'
p2777
I3022
sS'instead'
p2778
I1791
sS'memoir'
p2779
I2378
sS'stock'
p2780
I940
sS'profile'
p2781
I3339
sS'buildings'
p2782
I1592
sS'de'
p2783
I2949
sS'sleeker'
p2784
I3247
sS'specifications'
p2785
I1322
sS'watch'
p2786
I2362
sS'fluid'
p2787
I3291
sS'notebook'
p2788
I574
sS'fits'
p2789
I2390
sS'engineering'
p2790
I2936
sS'efficiently'
p2791
I1118
sS'pocket'
p2792
I2935
sS'realized'
p2793
I312
sS'ot'
p2794
I2084
sS'purely'
p2795
I3155
sS'defective'
p2796
I3018
sVlight
p2797
I106
sS'noises'
p2798
I3016
sVlines
p2799
I2581
sS'amazon'
p2800
I3313
sS'gigabyte'
p2801
I1163
sS'or'
p2802
I128
sS'allow'
p2803
I1839
sS'six'
p2804
I2643
sS'creation'
p2805
I2967
sS'stamped'
p2806
I1502
sS'mute'
p2807
I2265
sS'move'
p2808
I628
sS'including'
p2809
I298
sS'looks'
p2810
I1480
sS'mentioned'
p2811
I3036
sVbunch
p2812
I2626
sS'perfect'
p2813
I285
sS'lg'
p2814
I573
sS'till'
p2815
I3201
sS'll'
p2816
I533
sS'notebooks'
p2817
I1527
sS'him'
p2818
I2272
sS'willing'
p2819
I1779
sS'choose'
p2820
I2676
sS'headsets'
p2821
I2448
sS'covered'
p2822
I319
sS'2011'
p2823
I1019
sS'pixel'
p2824
I1996
sS'2013'
p2825
I3424
sS'2012'
p2826
I3282
sS'dad'
p2827
I817
sS'crash'
p2828
I1415
sS'fourth'
p2829
I2826
sS'practice'
p2830
I1094
sS'toshiba'
p2831
I317
sS'mention'
p2832
I676
sS'sandpaper'
p2833
I2710
sS'understood'
p2834
I2584
sS'hands'
p2835
I675
sS'front'
p2836
I947
sS'handy'
p2837
I1096
sS'strive'
p2838
I1849
sS'worlds'
p2839
I1878
sS'february'
p2840
I2914
sS'airports'
p2841
I1809
sS'edit'
p2842
I1477
sS'upgreade'
p2843
I1939
sS'blazing'
p2844
I1090
sS'cosmetically'
p2845
I2754
sS'lifetime'
p2846
I3260
sS'slide'
p2847
I2206
sS'weather'
p2848
I2162
sS'mode'
p2849
I1426
sS'champ'
p2850
I3390
sS'experienced'
p2851
I2332
sS'glasses'
p2852
I3217
sS'lectures'
p2853
I2865
sS'beginner'
p2854
I1736
sS'doing'
p2855
I524
sVparties
p2856
I1551
sS'unbelievable'
p2857
I3177
sS'related'
p2858
I2064
sS'bluetooth'
p2859
I570
sS'books'
p2860
I3010
sS'static'
p2861
I912
sS'temporaly'
p2862
I1344
sS'exceeded'
p2863
I1069
sS'our'
p2864
I853
sS'80'
p2865
I1162
sS'bay'
p2866
I3104
sS'salesman'
p2867
I1177
sS'special'
p2868
I655
sS'out'
p2869
I310
sS'lastly'
p2870
I3143
sS'ejecting'
p2871
I3345
sS"'"
I38
sS'twice'
p2872
I318
sS'spectrum'
p2873
I2067
sS'res'
p2874
I2123
sS'rep'
p2875
I2461
sS'reboot'
p2876
I1337
sS'messenger'
p2877
I1696
sS'versitility'
p2878
I2209
sS'performs'
p2879
I2323
sS'usability'
p2880
I3242
sS'hardwar'
p2881
I3116
sS'disapointed'
p2882
I2243
sS'electronics'
p2883
I991
sS'cause'
p2884
I2752
sS'reg'
p2885
I1914
sS'red'
p2886
I2594
sS'shut'
p2887
I359
sS'spot'
p2888
I2179
sS'ipod'
p2889
I483
sS'interplanetary'
p2890
I3296
sS'8g'
p2891
I3476
sS'promptly'
p2892
I1025
sS'completely'
p2893
I269
sS'usual'
p2894
I989
sS'anyhow'
p2895
I2951
sS'scary'
p2896
I2260
sS'applications'
p2897
I61
sS'could'
p2898
I610
sS'shells'
p2899
I3038
sS'timer'
p2900
I553
sS'times'
p2901
I348
sS'abuse'
p2902
I1521
sS'hence'
p2903
I2204
sS'retail'
p2904
I43
sS'pairing'
p2905
I239
sS'urgent'
p2906
I3407
sS'blown'
p2907
I2673
sS'450'
p2908
I3357
sS'powerful'
p2909
I1810
sS'seventeen'
p2910
I2622
sS'owned'
p2911
I1898
sS'bootcamp'
p2912
I1203
sS'date'
p2913
I2170
sS'improvements'
p2914
I1641
sS'warcraft'
p2915
I2778
sS'lagging'
p2916
I704
sS'blows'
p2917
I1030
sVkidding
p2918
I2744
sS'quality'
p2919
I49
sS'straight'
p2920
I1847
sS'owning'
p2921
I849
sS'management'
p2922
I1097
sS'bonus'
p2923
I254
sS'monkey'
p2924
I2592
sS'privacy'
p2925
I1990
sS'ordering'
p2926
I2895
sS'guys'
p2927
I2566
sS'durable'
p2928
I1687
sS'firewire'
p2929
I1290
sS'accent'
p2930
I922
sS'system'
p2931
I226
sS'shockingly'
p2932
I2587
sS'their'
p2933
I328
sS'1500'
p2934
I1759
sS'intermediate'
p2935
I1737
sS'650'
p2936
I2499
sS'norton'
p2937
I2403
sS'perfectly'
p2938
I1153
sS'macmall'
p2939
I834
sS'final'
p2940
I1692
sS'prone'
p2941
I2667
sS'sealed'
p2942
I1214
sS'adaptor'
p2943
I3375
sS'startup'
p2944
I2794
sS'completed'
p2945
I2138
sS'exactly'
p2946
I1321
sS'adjusts'
p2947
I2871
sS'diminish'
p2948
I2571
sVjuly
p2949
I2615
sS'updating'
p2950
I2756
sS'ipad'
p2951
I2012
sS'loved'
p2952
I1766
sS'eeepc'
p2953
I1358
sS'sorly'
p2954
I2242
sS'isolation'
p2955
I1188
sS'bother'
p2956
I229
sS'see'
p2957
I1021
sVflashed
p2958
I2992
sS'limiting'
p2959
I935
sS'claim'
p2960
I2701
sS'appealing'
p2961
I2658
sS'mousing'
p2962
I2689
sS'ventilation'
p2963
I3403
sS'loves'
p2964
I1603
sS'6th'
p2965
I2557
sS'visited'
p2966
I3078
sS'steer'
p2967
I2740
sS'migration'
p2968
I546
sS'wakes'
p2969
I3267
sS'viewer'
p2970
I1615
sS'storing'
p2971
I2003
sS'comfortable'
p2972
I1565
sS'case'
p2973
I1567
sS'recessed'
p2974
I3341
sS'comfortably'
p2975
I2938
sS'unlikely'
p2976
I2157
sS'have'
p2977
I32
sS'need'
p2978
I565
sS'assurances'
p2979
I2114
sS'clearly'
p2980
I2942
sS'microphone'
p2981
I2665
sS'documents'
p2982
I468
sS'angle'
p2983
I3112
sS'min'
p2984
I1833
sS'4000'
p2985
I2421
sS'mic'
p2986
I795
sS'sexyy'
p2987
I1481
sS'reloaded'
p2988
I1140
sS'aftermarket'
p2989
I1282
sS'purchasing'
p2990
I2039
sS'instance'
p2991
I2455
sS'ahold'
p2992
I2930
sS'which'
p2993
I41
sS'='
I2042
sS'brand'
p2994
I315
sS'criteria'
p2995
I2713
sS'unless'
p2996
I185
sVexpires
p2997
I816
sS'costed'
p2998
I1545
sS'courtesy'
p2999
I3453
sS'visa'
p3000
I2792
sS'connected'
p3001
I211
sS'ht'
p3002
I2762
sS'logitech'
p3003
I1782
sS'device'
p3004
I2237
sS'expired'
p3005
I332
sS'why'
p3006
I1084
sS'volume'
p3007
I740
sS'placement'
p3008
I2222
sS'conversations'
p3009
I3055
sS'tutoring'
p3010
I2131
sS'stronger'
p3011
I1503
sS'breeze'
p3012
I3183
sS'looked'
p3013
I669
sS'labtop'
p3014
I1899
sS'movie'
p3015
I531
sS'occasion'
p3016
I1708
sS'fact'
p3017
I397
sS'son'
p3018
I76
sS'bulging'
p3019
I2108
sS'please'
p3020
I1662
sS'burners'
p3021
I1703
sS'anyway'
p3022
I1479
sS'paralles'
p3023
I3117
sS'typist'
p3024
I2158
sS'longevity'
p3025
I700
sS'bring'
p3026
I563
sS'planning'
p3027
I2253
sS'fumbling'
p3028
I3274
sS'bedroom'
p3029
I3384
sS'pleased'
p3030
I1293
sS'leg'
p3031
I2707
sS'staff'
p3032
I1277
sS'trying'
p3033
I297
sS'based'
p3034
I1249
sS'('
I139
sS'winner'
p3035
I2229
sS'jar'
p3036
I698
sS'fans'
p3037
I2366
sS'should'
p3038
I1045
sS'buttons'
p3039
I944
sS'brighter'
p3040
I875
sVunable
p3041
I2071
sS'micron'
p3042
I3372
sS'notes'
p3043
I3102
sS'printers'
p3044
I2079
sS'various'
p3045
I1965
sS'he'
p3046
I889
sS'local'
p3047
I2959
sS'achieve'
p3048
I137
sS'regularly'
p3049
I2438
sS'slows'
p3050
I2736
sS'handle'
p3051
I2779
sS'means'
p3052
I801
sS'beat'
p3053
I521
sS'familiar'
p3054
I688
sS'photography'
p3055
I1535
sS'hopefully'
p3056
I3436
sS'overall'
p3057
I1144
sS'lucky'
p3058
I2929
sS'mgr'
p3059
I1458
sS'ones'
p3060
I120
sS'words'
p3061
I1634
sS'bluray'
p3062
I886
sS'buyer'
p3063
I1506
sS'compaq'
p3064
I2405
sS'areas'
p3065
I3029
sS'gray'
p3066
I942
sS'processes'
p3067
I1110
sS'processer'
p3068
I2190
sS'temp'
p3069
I1638
sS'ended'
p3070
I2527
sVfixes
p3071
I2172
sS'liht'
p3072
I2449
sS'stuff'
p3073
I2077
sS'she'
p3074
I1475
sS'ecosystem'
p3075
I3290
sS'grab'
p3076
I2831
sS'fixed'
p3077
I832
sS'prepaid'
p3078
I1683
sS'reconize'
p3079
I2908
sS'view'
p3080
I1837
sS'knowing'
p3081
I2500
sS'temporarily'
p3082
I1758
sS'knowlede'
p3083
I1529
sS'configured'
p3084
I1170
sS'operates'
p3085
I1867
sS'edition'
p3086
I1020
sS'computer'
p3087
I358
sS'slanted'
p3088
I3111
sS'rubbing'
p3089
I2972
sS'parallels'
p3090
I2775
sS'nightmare'
p3091
I1743
sS'horribly'
p3092
I3033
sS'segment'
p3093
I2735
sS'superb'
p3094
I3206
sS'genius'
p3095
I519
sVcorrectly
p3096
I2646
sS'horrible'
p3097
I1372
sS'tens'
p3098
I1078
sVtranferring
p3099
I2743
sS'frustrated'
p3100
I473
sS'email'
p3101
I406
sS'pants'
p3102
I1017
sS'keynote'
p3103
I1420
sS'ability'
p3104
I2829
sS'opening'
p3105
I467
sS'deliver'
p3106
I3151
sS'job'
p3107
I1735
sS'key'
p3108
I514
sS'demonstrate'
p3109
I2943
sS'configuration'
p3110
I706
sS'ios'
p3111
I3440
sS'thank'
p3112
I2565
sS'restrictions'
p3113
I3186
sS'joke'
p3114
I2925
sS'taking'
p3115
I8
sS'acknowledge'
p3116
I2268
sS'equal'
p3117
I2562
sS'presentations'
p3118
I1709
sS'agree'
p3119
I2469
sS'etc'
p3120
I412
sS'admit'
p3121
I2812
sS'wt'
p3122
I2517
sS'darker'
p3123
I2153
sS'kinds'
p3124
I2678
sS'otherwise'
p3125
I2363
sS'comment'
p3126
I995
sS'adjusted'
p3127
I3433
sS'agents'
p3128
I1882
sS'shipment'
p3129
I2669
sS'ca'
p3130
I680
sS'cd'
p3131
I918
sS'recognized'
p3132
I3168
sS'crafted'
p3133
I3349
sS'respect'
p3134
I686
sS'winning'
p3135
I2850
sS'quit'
p3136
I430
sS'powered'
p3137
I1360
sS'addition'
p3138
I2721
sS'decent'
p3139
I2589
sS'copies'
p3140
I1493
sS'responds'
p3141
I587
sS'netbook'
p3142
I46
sS'slowly'
p3143
I678
sS'treat'
p3144
I2890
sVinadequate
p3145
I2522
sS'utilizing'
p3146
I2277
sS'waste'
p3147
I3389
sS'>'
I1853
sS'penny'
p3148
I2410
sS'controlled'
p3149
I2884
sS'commutes'
p3150
I2439
sS'moved'
p3151
I2703
sS'otd'
p3152
I3318
sS'essentially'
p3153
I3356
sS'crappy'
p3154
I3306
sS'bulk'
p3155
I1731
sS'controller'
p3156
I1921
sS'expeirencing'
p3157
I2457
sS'angles'
p3158
I3026
sS'graphics'
p3159
I132
sS'improved'
p3160
I789
sS'an'
p3161
I126
sS'garmin'
p3162
I733
sS'arisen'
p3163
I715
sS'multi'
p3164
I174
sS'laser'
p3165
I3347
sS'unlike'
p3166
I1428
sS'plain'
p3167
I1794
sS'appearance'
p3168
I793
sS'value'
p3169
I404
sS'2010'
p3170
I3309
sS'will'
p3171
I161
sS'stunning'
p3172
I2699
sS'ar'
p3173
I2635
sS'fault'
p3174
I1639
sS'instantly'
p3175
I3169
sS'frustrating'
p3176
I274
sS'carved'
p3177
I1715
sS'2,300'
p3178
I2872
sS'aesthetics'
p3179
I2139
sS've'
p3180
I781
sS'manually'
p3181
I2502
sS'almost'
p3182
I1852
sS'thus'
p3183
I1828
sS'site'
p3184
I2263
sS'surface'
p3185
I898
sS'weighed'
p3186
I649
sVexamined
p3187
I1887
sS'dual'
p3188
I131
sS'lightweight'
p3189
I923
sS'bucks'
p3190
I1388
sS'sits'
p3191
I695
sS'starcraft'
p3192
I2068
sS')'
I143
sS'began'
p3193
I2570
sS'luxurys'
p3194
I2634
sVantiviral
p3195
I2047
sS'strange'
p3196
I705
sS'speaker'
p3197
I495
sS'ince'
p3198
I2986
sS'largest'
p3199
I1906
sS'inch'
p3200
I1432
sS'party'
p3201
I2508
sS'upgradeable'
p3202
I3409
sVgets
p3203
I718
sS'difficult'
p3204
I3081
sS'material'
p3205
I2484
sS'logic'
p3206
I3302
sVupon
p3207
I1134
sS'nightly'
p3208
I371
sS'openoffice'
p3209
I1911
sS'student'
p3210
I2133
sS'gestures'
p3211
I176
sS'frequently'
p3212
I1631
sS'tighter'
p3213
I579
sS'arse'
p3214
I2088
sVoff
p3215
I94
sS'center'
p3216
I24
sS'dock'
p3217
I1381
sS'i'
I1
sS'well'
p3218
I588
sS'transmissions'
p3219
I3297
sS'fighting'
p3220
I1273
sS'thought'
p3221
I498
sS'sheer'
p3222
I2546
sVdrone
p3223
I2787
sS'command'
p3224
I2837
sS'english'
p3225
I1106
sS'position'
p3226
I3176
sS'audio'
p3227
I1149
sS'latest'
p3228
I1044
sS'load'
p3229
I739
sS'expectin'
p3230
I3427
sS'cried'
p3231
I3304
sS'less'
p3232
I595
sS'moments'
p3233
I2911
sS'novice'
p3234
I1772
sS'fingerprint'
p3235
I771
sS'mistaken'
p3236
I2176
sS'camed'
p3237
I974
sS'batteries'
p3238
I1254
sS'advertised'
p3239
I1750
sS'unplugged'
p3240
I682
sS'roomy'
p3241
I3144
sS'web'
p3242
I525
sS'anykind'
p3243
I2101
sS'effeciency'
p3244
I2879
sS'point'
p3245
I2025
sS'capabilities'
p3246
I1795
sVday
p3247
I98
sS'simple'
p3248
I465
sS'add'
p3249
I730
sS'book'
p3250
I1053
sS'attractive'
p3251
I2620
sS'crack'
p3252
I1397
sS'vids'
p3253
I411
sS'unprecedented'
p3254
I1862
sS'reformed'
p3255
I2351
sS'sonic'
p3256
I2424
sS'gods'
p3257
I1822
sS'checking'
p3258
I2382
sS'thicker'
p3259
I3415
sS'increases'
p3260
I1730
sS'five'
p3261
I2142
sS'know'
p3262
I163
sS'facial'
p3263
I2353
sS'desk'
p3264
I2798
sS'press'
p3265
I1616
sS'immediately'
p3266
I3006
sS'hollow'
p3267
I2903
sS'worki'
p3268
I1245
sS'motorola'
p3269
I1297
sS'necessary'
p3270
I1259
sS'helpful'
p3271
I1105
sS'lost'
p3272
I2719
sS'sizes'
p3273
I1997
sS'fingerprints'
p3274
I900
sS'loses'
p3275
I3034
sS'sized'
p3276
I1625
sS'garage'
p3277
I84
sS'5hrs'
p3278
I1496
sS'lose'
p3279
I1424
sS'become'
p3280
I851
sS'works'
p3281
I192
sS'soft'
p3282
I157
sS'page'
p3283
I1614
sS'inspiron'
p3284
I3365
sS'replacement'
p3285
I858
sS'exceed'
p3286
I1407
sS'because'
p3287
I13
sS'glare'
p3288
I2975
sS'smoothly'
p3289
I1181
sS'marketshare'
p3290
I1274
sS'searching'
p3291
I2475
sS'library'
p3292
I2493
sS'choosing'
p3293
I1042
sS'glary'
p3294
I1330
sS'home'
p3295
I169
sS'liking'
p3296
I865
sS'blade'
p3297
I2246
sS'transport'
p3298
I2015
sS'happens'
p3299
I1131
sS'broad'
p3300
I1515
sS'chess'
p3301
I2768
sS'fedex'
p3302
I3052
sS'superdrive'
p3303
I3374
sS'does'
p3304
I25
sS'screwed'
p3305
I502
sS'?'
I811
sS'limitations'
p3306
I3301
sS'noise'
p3307
I1769
sS'imformative'
p3308
I1959
sS'dismantle'
p3309
I3099
sS'expansion'
p3310
I1287
sS'stellar'
p3311
I2284
sS'although'
p3312
I1207
sS'snapped'
p3313
I2919
sS'described'
p3314
I3396
sS'seagate'
p3315
I3359
sS'paste'
p3316
I2347
sS'periodically'
p3317
I2019
sS'simpler'
p3318
I509
sS'about'
p3319
I140
sS'rare'
p3320
I428
sVsocket
p3321
I1609
sVextension
p3322
I1539
sS'getting'
p3323
I230
sS'spilled'
p3324
I1100
sS'shipping'
p3325
I508
sS'compatible'
p3326
I1628
sS'appleworks'
p3327
I985
sS'powerpoint'
p3328
I2433
sS'software'
p3329
I191
sS'warranty'
p3330
I309
sS'own'
p3331
I1492
sS'letters'
p3332
I1516
sS'additionally'
p3333
I3402
sS'previously'
p3334
I2174
sS'sharpness'
p3335
I2224
sS'smarty'
p3336
I1016
sS'headphone'
p3337
I2143
sS'brands'
p3338
I2681
sS'doesnt'
p3339
I1587
sS'promise'
p3340
I1403
sVtiny
p3341
I867
sS'aggrevation'
p3342
I2510
sS'registration'
p3343
I2098
sS'quickly'
p3344
I463
sS'lightyears'
p3345
I3446
sS'mere'
p3346
I1954
sS'significantly'
p3347
I3337
sS'networking'
p3348
I2555
sS'additional'
p3349
I860
sS'transfer'
p3350
I2116
sS'support'
p3351
I365
sS'apps'
p3352
I1117
sVnoticed
p3353
I1509
sS'baterry'
p3354
I3141
sS'biggest'
p3355
I1774
sS'function'
p3356
I2660
sS'smeary'
p3357
I3062
sS'buy'
p3358
I167
sS'chatting'
p3359
I1590
sS'exchanged'
p3360
I2851
sS'hr'
p3361
I1525
sS'bus'
p3362
I2440
sS'hp'
p3363
I363
sS'but'
p3364
I215
sS'delivery'
p3365
I779
sS'tutorials'
p3366
I1962
sS'construction'
p3367
I699
sS'larger'
p3368
I1925
sS'technician'
p3369
I337
sS'editing'
p3370
I511
sS'memphis'
p3371
I3108
sVbrick
p3372
I2629
sS'hd'
p3373
I256
sS'partially'
p3374
I809
sS'count'
p3375
I3273
sS'made'
p3376
I820
sS'places'
p3377
I661
sS'whether'
p3378
I2790
sS'wish'
p3379
I721
sS'smooth'
p3380
I1158
sS'hosting'
p3381
I2211
sS'record'
p3382
I1476
sS'below'
p3383
I2973
sS'outsoucing'
p3384
I1880
sS'chipset'
p3385
I1754
sS'problem'
p3386
I314
sVpiece
p3387
I869
sS'minutes'
p3388
I626
sS'display'
p3389
I778
sS'recognize'
p3390
I1083
sS'universal'
p3391
I3050
sS'internals'
p3392
I2352
sS'slowing'
p3393
I1969
sS'beats'
p3394
I3157
sS'lived'
p3395
I3237
sS'webpages'
p3396
I1908
sS'vostro'
p3397
I2739
sS'9800'
p3398
I2175
sS'campus'
p3399
I1593
sS'worse'
p3400
I1892
sS'functions'
p3401
I1215
sS'compared'
p3402
I710
sS'incredible'
p3403
I195
sS'trials'
p3404
I2862
sS'44'
p3405
I3319
sS'45'
p3406
I2021
sS'boot'
p3407
I266
sS'virtual'
p3408
I3118
sS'other'
p3409
I71
sVcompares
p3410
I2952
sS'details'
p3411
I3004
sS'incredibly'
p3412
I432
sS'clicks'
p3413
I2076
sS'adjustments'
p3414
I3442
sS'junk'
p3415
I1371
sVrepeat
p3416
I2648
sS'star'
p3417
I2118
sS'class'
p3418
I2220
sS'june'
p3419
I2048
sS'stay'
p3420
I210
sS'chance'
p3421
I2866
sS'kinda'
p3422
I323
sS'iwork'
p3423
I842
sS'nicest'
p3424
I3437
sS'priced'
p3425
I1414
sS'friends'
p3426
I925
sS'incurred'
p3427
I837
sS'gamers'
p3428
I1877
sS'samsung'
p3429
I3195
sS'starting'
p3430
I1864
sS'entertainment'
p3431
I3089
sS'lasted'
p3432
I2093
sS'original'
p3433
I2529
sS'write'
p3434
I888
sS'status'
p3435
I1756
sS'4g'
p3436
I3475
sS'accidents'
p3437
I3161
sVindirectly
p3438
I2742
s.