(dp1
S'rasamalai'
p2
I1857
sS'limited'
p3
I375
sS'legacies'
p4
I773
sS'surrounding'
p5
I2061
sS'hats'
p6
I684
sS'saves'
p7
I746
sS'dynamic'
p8
I3957
sS'monte'
p9
I3597
sS'yellow'
p10
I3540
sS'sleek'
p11
I2566
sS'four'
p12
I574
sS'kamasutra'
p13
I3568
sS'asian'
p14
I1291
sS'hanging'
p15
I500
sS'famished'
p16
I2580
sS'gabriella'
p17
I779
sS'captain'
p18
I741
sS'hate'
p19
I433
sS'greens'
p20
I2185
sS'forget'
p21
I777
sS'stinks'
p22
I4409
sS'increase'
p23
I3163
sS'paris'
p24
I2553
sS'carrots'
p25
I4287
sS'161'
p26
I2579
sS'347'
p27
I3662
sS'walks'
p28
I4011
sS'whatsoever'
p29
I2345
sS'under'
p30
I2423
sS'sorry'
p31
I2160
sS'pride'
p32
I1669
sS'worth'
p33
I502
sS'@'
I754
sS'smoothies'
p34
I4102
sS'chennai'
p35
I3206
sS'deli'
p36
I2297
sS'regional'
p37
I4061
sS'every'
p38
I884
sS'figs'
p39
I3324
sS'messy'
p40
I3265
sS'devine'
p41
I3150
sS'bringing'
p42
I3290
sS'encounter'
p43
I3644
sS'tickets'
p44
I4359
sS'sichuan'
p45
I673
sS'school'
p46
I2799
sS'wooden'
p47
I174
sS'clientele'
p48
I3314
sS'wednesday'
p49
I1903
sS'waldy'
p50
I4057
sS'frozen'
p51
I695
sS'flashy'
p52
I3243
sS'enhance'
p53
I1926
sS'nondescript'
p54
I4412
sS'ups'
p55
I2319
sS'vincenzo'
p56
I4093
sS'9pm'
p57
I2756
sS'enjoy'
p58
I417
sS'imposeing'
p59
I4186
sS'expanded'
p60
I909
sS'tired'
p61
I864
sS'refleshment'
p62
I731
sS'consistent'
p63
I1595
sS'ornate'
p64
I4202
sS'bacon'
p65
I129
sS'japanese'
p66
I1711
sS'sabbath'
p67
I107
sS'chef'
p68
I530
sS'raucus'
p69
I1606
sS'second'
p70
I250
sS'street'
p71
I827
sS'49'
p72
I1978
sS'sailed'
p73
I3826
sS'air'
p74
I2524
sS'shining'
p75
I3742
sS'even'
p76
I184
sS'admire'
p77
I2801
sS'mascarpone'
p78
I3784
sS'saved'
p79
I621
sS'+'
I1306
sS'cooking'
p80
I1009
sS'near'
p81
I1027
sS'liberty'
p82
I1189
sS'wouldnt'
p83
I320
sS'haze'
p84
I3510
sS'hostile'
p85
I3489
sS'absolute'
p86
I3996
sS'above'
p87
I19
sS'yonah'
p88
I3676
sS'new'
p89
I527
sS'tips'
p90
I1524
sS'poorly'
p91
I2714
sS'ever'
p92
I962
sS'consisting'
p93
I4181
sS'disney'
p94
I1456
sS'counters'
p95
I833
sS'deemed'
p96
I2291
sS'kensington'
p97
I3804
sS'pancakes'
p98
I1824
sS'herb'
p99
I1925
sS'never'
p100
I373
sS'shuizhu'
p101
I2612
sS'here'
p102
I268
sS'hundreds'
p103
I2149
sS'refinement'
p104
I522
sS'kicker'
p105
I2920
sS'100'
p106
I920
sS'previews'
p107
I2829
sS'mozzarella'
p108
I693
sS'celebration'
p109
I1883
sS'dry'
p110
I2295
sS'kids'
p111
I1739
sS'daughter'
p112
I4099
sS'lychee'
p113
I3822
sS'items'
p114
I758
sS'employees'
p115
I1163
sS'changed'
p116
I1913
sS'nicoise'
p117
I3823
sS'unfriendly'
p118
I3035
sS'credit'
p119
I3525
sS'tri'
p120
I4307
sS'stressed'
p121
I3590
sS'california'
p122
I2274
sS'spotty'
p123
I2262
sS'changes'
p124
I3352
sS'pairings'
p125
I2406
sS'golden'
p126
I3791
sS'fantastic'
p127
I349
sS'ingrediants'
p128
I3451
sS'iberian'
p129
I4030
sS'slices'
p130
I1621
sS'godmother'
p131
I2231
sS'explained'
p132
I1167
sS'pitas'
p133
I4446
sS'charred'
p134
I656
sS'highly'
p135
I592
sS'brought'
p136
I492
sS'pound'
p137
I1519
sS'assaults'
p138
I4267
sS'meats'
p139
I80
sS'drowned'
p140
I4168
sS'total'
p141
I2964
sS'meaty'
p142
I4334
sS'comprised'
p143
I3648
sS'quasi'
p144
I3256
sS'would'
p145
I432
sS'hungry'
p146
I1115
sS'quibbles'
p147
I1753
sS'caring'
p148
I4021
sS'seved'
p149
I2416
sS'symphony'
p150
I2194
sS'music'
p151
I725
sS'calm'
p152
I2802
sS'recommend'
p153
I514
sS'strike'
p154
I2780
sS'pelligrino'
p155
I3567
sS'sexy'
p156
I3899
sS'commuters'
p157
I4354
sS'type'
p158
I705
sS'until'
p159
I929
sS'calf'
p160
I4321
sS'breathe'
p161
I3513
sS'speaking'
p162
I3375
sS'massamman'
p163
I2665
sS'posting'
p164
I3106
sS'holy'
p165
I3281
sS'relax'
p166
I699
sS'brings'
p167
I3049
sS'congee'
p168
I516
sS'award'
p169
I2761
sS'hurt'
p170
I1937
sS'warn'
p171
I3164
sS'glass'
p172
I324
sS'festival'
p173
I4038
sS'warm'
p174
I202
sS'overcooking'
p175
I2659
sS'former'
p176
I4142
sS'excellent'
p177
I273
sS'90'
p178
I1367
sS'hole'
p179
I1043
sS'recommand'
p180
I2505
sS'95'
p181
I1637
sS'authentically'
p182
I2234
sS'must'
p183
I926
sS'me'
p184
I322
sS'decoration'
p185
I166
sS'word'
p186
I935
sS'room'
p187
I622
sS'baluchi'
p188
I1148
sS'work'
p189
I1026
sS'mi'
p190
I4105
sS'roof'
p191
I3576
sS'mj'
p192
I3851
sS'kalmata'
p193
I4183
sS'daft'
p194
I111
sS'existant'
p195
I1966
sS'temperatures'
p196
I128
sS'mr'
p197
I99
sS'stauff'
p198
I2855
sS'elegantly'
p199
I3260
sS'sets'
p200
I3514
sS'my'
p201
I192
sS'example'
p202
I1698
sS'piers'
p203
I3840
sS'anticipating'
p204
I1438
sS'vodka'
p205
I3746
sS'fresher'
p206
I2727
sS'give'
p207
I398
sS'calories'
p208
I3016
sS'india'
p209
I4345
sS'honey'
p210
I3947
sS'foods'
p211
I742
sS'overheard'
p212
I3055
sS'veggies'
p213
I4188
sS'want'
p214
I199
sS'cantonese'
p215
I1007
sS'boths'
p216
I1157
sS'keep'
p217
I907
sS'attract'
p218
I2892
sS'returned'
p219
I3508
sS'mcmuffin'
p220
I4223
sS'end'
p221
I291
sS'devotion'
p222
I3883
sS'turn'
p223
I1058
sS'complaining'
p224
I2481
sS'rib'
p225
I3948
sS'customers'
p226
I2697
sS'nuts'
p227
I2880
sS'frites'
p228
I1640
sS'confit'
p229
I3320
sS'machine'
p230
I3446
sS'how'
p231
I300
sS'amazing'
p232
I267
sS'hop'
p233
I3318
sS'harkens'
p234
I2639
sS'disappoint'
p235
I2221
sS'ordinary'
p236
I717
sS'kebabs'
p237
I2991
sS'charging'
p238
I1098
sS'pizza'
p239
I157
sS'badly'
p240
I2020
sS'description'
p241
I2877
sS'beauty'
p242
I2114
sS'funny'
p243
I3200
sS'mess'
p244
I786
sS'after'
p245
I342
sS'carinthia'
p246
I4291
sS'hong'
p247
I3536
sS'amanzing'
p248
I286
sS'wrong'
p249
I714
sS'mesh'
p250
I1104
sS'fat'
p251
I1766
sS'balthazar'
p252
I3279
sS'salsa'
p253
I4419
sS'dumbo'
p254
I4037
sS'types'
p255
I893
sS'bucks'
p256
I2433
sS'purchase'
p257
I1970
sS'chilled'
p258
I350
sS'anymore'
p259
I3698
sS'third'
p260
I1787
sS'occasions'
p261
I3078
sS'recieved'
p262
I2115
sS'attracts'
p263
I1132
sS'strict'
p264
I3609
sS'appreciate'
p265
I3255
sS'greet'
p266
I1281
sS'parisi'
p267
I4134
sS'maintain'
p268
I3717
sS'green'
p269
I994
sS'waited'
p270
I2199
sS'goodbye'
p271
I4297
sS'suggest'
p272
I1101
sS'fan'
p273
I2538
sS'operate'
p274
I3738
sS'oysters'
p275
I2620
sS'order'
p276
I472
sS'wind'
p277
I3021
sS'wine'
p278
I240
sS'deco'
p279
I232
sS'office'
p280
I1854
sS'enter'
p281
I2537
sS'over'
p282
I130
sS'zen'
p283
I3628
sS'satisfied'
p284
I247
sS'murray'
p285
I678
sS'outshine'
p286
I2153
sS'london'
p287
I2669
sS'oven'
p288
I1429
sS'innovative'
p289
I1663
sS'kong'
p290
I3537
sS'japan'
p291
I2364
sS'yellowfin'
p292
I4320
sS'before'
p293
I312
sS'fit'
p294
I3773
sS'personal'
p295
I1113
sS'fix'
p296
I1797
sS'avocado'
p297
I3418
sS'expectations'
p298
I789
sS'crew'
p299
I1590
sS'better'
p300
I455
sS'production'
p301
I2193
sS'understated'
p302
I2949
sS'differently'
p303
I2694
sS'receipies'
p304
I2749
sS'weeks'
p305
I1470
sS'fin'
p306
I3543
sS'easier'
p307
I3792
sS'pleasurable'
p308
I1674
sS'versus'
p309
I813
sS'then'
p310
I1154
sS'them'
p311
I414
sS'affected'
p312
I483
sS'tourist'
p313
I2929
sS'combination'
p314
I1237
sS'gag'
p315
I4005
sS'thee'
p316
I4080
sS'break'
p317
I1885
sS'band'
p318
I2938
sS'bang'
p319
I2066
sS'effects'
p320
I1891
sS'they'
p321
I115
sS'indulge'
p322
I4016
sS'glazed'
p323
I2202
sS'one'
p324
I393
sS'bank'
p325
I1886
sS'bread'
p326
I933
sS'meat'
p327
I1102
sS'notified'
p328
I3733
sS'potatoes'
p329
I2838
sS'reasonably'
p330
I1443
sS'crunchy'
p331
I1884
sS'l'
I257
sS'toasted'
p332
I3344
sS'filling'
p333
I876
sS'panini'
p334
I1412
sS'artifical'
p335
I4119
sS'reasonable'
p336
I224
sS'each'
p337
I1813
sS'went'
p338
I163
sS'rosemary'
p339
I4229
sS'meal'
p340
I302
sS'bone'
p341
I451
sS'mean'
p342
I1156
sS'lifted'
p343
I2986
sS'hanger'
p344
I281
sS'roxy'
p345
I1196
sS'laying'
p346
I3581
sS'told'
p347
I1687
sS'spider'
p348
I493
sS'fornino'
p349
I2746
sS'seasonally'
p350
I4060
sS'strips'
p351
I2124
sS'turnip'
p352
I1526
sS'forgot'
p353
I118
sS'substantially'
p354
I3481
sS'apetizers'
p355
I2013
sS'convienent'
p356
I3838
sS'saturday'
p357
I1471
sS'whip'
p358
I41
sS'tupperware'
p359
I2975
sS'spicing'
p360
I3656
sS'driving'
p361
I3928
sS'god'
p362
I2605
sS'freeze'
p363
I3391
sS're'
p364
I292
sS'laid'
p365
I1125
sS'daniel'
p366
I4314
sS'remorse'
p367
I2509
sS'volare'
p368
I1413
sS'nite'
p369
I1405
sS'reader'
p370
I3165
sS'heavenly'
p371
I2179
sS'surprise'
p372
I1270
sS'palak'
p373
I3595
sS'creole'
p374
I3936
sS'sliding'
p375
I2675
sS'sheep'
p376
I4197
sS'grease'
p377
I3180
sS'turning'
p378
I4159
sS'assured'
p379
I4290
sS'whiff'
p380
I1312
sS'tops'
p381
I4302
sS'fave'
p382
I3946
sS'given'
p383
I1662
sS'free'
p384
I239
sS'standard'
p385
I3277
sS'appointments'
p386
I3459
sS'grapes'
p387
I1246
sS'delightfully'
p388
I3276
sS'fixe'
p389
I1014
sS'wanted'
p390
I1800
sS'certified'
p391
I3249
sS'greasy'
p392
I4070
sS'aisle'
p393
I3075
sS'enormous'
p394
I3373
sS'ate'
p395
I1538
sS'dahkin'
p396
I2486
sS'inexpensive'
p397
I1127
sS'sandwhiches'
p398
I3683
sS'scruff'
p399
I100
sS'takeout'
p400
I906
sS'lousy'
p401
I1492
sS'licked'
p402
I761
sS'ish'
p403
I3315
sS'speedy'
p404
I1275
sS'soda'
p405
I2376
sS'cucumber'
p406
I3366
sS'unappreciative'
p407
I2726
sS'fritter'
p408
I3779
sS'loud'
p409
I1310
sS'chopped'
p410
I3134
sS'brickwork'
p411
I3462
sS'rang'
p412
I1972
sS'bowl'
p413
I3457
sS'nha'
p414
I974
sS'features'
p415
I1264
sS'grade'
p416
I3651
sS'attractions'
p417
I3523
sS'veggie'
p418
I4284
sS'tostada'
p419
I3968
sS'wash'
p420
I1783
sS'ofr'
p421
I1697
sS'delicious'
p422
I279
sS'robust'
p423
I3467
sS'tamarind'
p424
I1139
sS'plastic'
p425
I2811
sS'ten'
p426
I3825
sS'service'
p427
I207
sS'similarly'
p428
I1971
sS'mcnuggets'
p429
I4276
sS'top'
p430
I370
sS'crunches'
p431
I4323
sS'girls'
p432
I2667
sS'reuben'
p433
I3617
sS'approximately'
p434
I1203
sS'heights'
p435
I3750
sS'plentiful'
p436
I2025
sS'needed'
p437
I1991
sS'ton'
p438
I787
sS'too'
p439
I382
sS'blossoms'
p440
I2720
sS'tom'
p441
I1844
sS'bitter'
p442
I2390
sS'ranging'
p443
I582
sS'listen'
p444
I2438
sS'ceiling'
p445
I1219
sS'hangout'
p446
I2064
sS'canned'
p447
I2615
sS'relative'
p448
I4090
sS'touristy'
p449
I1339
sS'serve'
p450
I2548
sS'took'
p451
I136
sS'atmoshpere'
p452
I3037
sS'repeatable'
p453
I2882
sS'predictable'
p454
I4231
sS'somewhat'
p455
I523
sS'wasted'
p456
I3854
sS'shortly'
p457
I2692
sS'outisde'
p458
I825
sS'brushed'
p459
I2810
sS'paella'
p460
I2076
sS'brulee'
p461
I653
sS'target'
p462
I3918
sS'frankly'
p463
I811
sS'bacos'
p464
I1936
sS'hike'
p465
I3236
sS'bindi'
p466
I1474
sS'uptown'
p467
I3949
sS'likely'
p468
I570
sS'seated'
p469
I578
sS'preparation'
p470
I2776
sS'matter'
p471
I1368
sS'idle'
p472
I2439
sS'fabulous'
p473
I348
sS'mermaid'
p474
I2431
sS'feeling'
p475
I409
sS'tipping'
p476
I3904
sS'mini'
p477
I1418
sS'vegatables'
p478
I611
sS'ran'
p479
I3201
sS'rao'
p480
I2924
sS'marnier'
p481
I3923
sS'modern'
p482
I2247
sS'mind'
p483
I1761
sS'mine'
p484
I2386
sS'ginger'
p485
I1076
sS'drip'
p486
I3179
sS'raw'
p487
I610
sS'lunchtime'
p488
I4212
sS'seltzer'
p489
I177
sS'seen'
p490
I1872
sS'seem'
p491
I952
sS'picks'
p492
I2329
sS'leafy'
p493
I850
sS'tells'
p494
I3990
sS'ray'
p495
I766
sS'tho'
p496
I2546
sS'strength'
p497
I2042
sS'genuine'
p498
I3138
sS'thoroughly'
p499
I1426
sS'soaked'
p500
I2238
sS'-'
I109
sS'elegance'
p501
I3693
sS'situated'
p502
I2593
sS'realy'
p503
I3521
sS'sound'
p504
I4073
sS'recommended'
p505
I1117
sS'hearty'
p506
I3258
sS'luxury'
p507
I2790
sS'doors'
p508
I2305
sS'laughed'
p509
I2096
sS'downstairs'
p510
I2969
sS'realtively'
p511
I2996
sS'blue'
p512
I1325
sS'memebers'
p513
I3837
sS'though'
p514
I424
sS'thrilled'
p515
I3653
sS'mother'
p516
I3386
sS'courtesey'
p517
I1757
sS'mashed'
p518
I2837
sS'welll'
p519
I2311
sS'regular'
p520
I1059
sS'mouth'
p521
I1767
sS'ensure'
p522
I4129
sS'plenty'
p523
I2210
sS'echoes'
p524
I3626
sS'imported'
p525
I1613
sS'inconsistency'
p526
I2763
sS'opted'
p527
I1995
sS'singer'
p528
I4065
sS'soupy'
p529
I3026
sS'treats'
p530
I3737
sS'soups'
p531
I537
sS'cuccumber'
p532
I4444
sS'm'
I803
sS'dog'
p533
I3902
sS'newcomers'
p534
I2724
sS'lyle'
p535
I1860
sS'ripoff'
p536
I3588
sS'definitely'
p537
I1054
sS'aunt'
p538
I3620
sS'manydifferent'
p539
I3128
sS'pineapple'
p540
I3602
sS'entertaining'
p541
I2576
sS'yankees'
p542
I1366
sS'faired'
p543
I2752
sS'scream'
p544
I1427
sS'came'
p545
I795
sS'reserve'
p546
I2393
sS'decidedly'
p547
I2368
sS'saying'
p548
I1905
sS'beaten'
p549
I2245
sS'overpriced'
p550
I1359
sS'visitor'
p551
I1597
sS'meetings'
p552
I1346
sS'fingers'
p553
I3632
sS'prix'
p554
I1013
sS'fennel'
p555
I4247
sS'supplied'
p556
I2310
sS'cakebread'
p557
I3301
sS'earth'
p558
I3287
sS'enjoyed'
p559
I1071
sS'toast'
p560
I119
sS'finally'
p561
I1062
sS'fooood'
p562
I4194
sS'asbolute'
p563
I2522
sS'quaint'
p564
I2873
sS'menu'
p565
I51
sS'weekends'
p566
I436
sS'vacation'
p567
I3647
sS'hrs'
p568
I4108
sS'sugar'
p569
I655
sS'touched'
p570
I135
sS'rich'
p571
I3073
sS'folks'
p572
I733
sS'attitudes'
p573
I2707
sS'adequate'
p574
I1265
sS'rice'
p575
I266
sS'personality'
p576
I1416
sS'lady'
p577
I1958
sS'do'
p578
I181
sS'dj'
p579
I2102
sS'colorful'
p580
I1012
sS'wide'
p581
I2451
sS'df'
p582
I3023
sS'de'
p583
I2853
sS'stop'
p584
I1979
sS'overpraised'
p585
I1146
sS'herd'
p586
I4199
sS'appetizer'
p587
I353
sS'12'
p588
I840
sS'tiled'
p589
I832
sS'despite'
p590
I784
sS'frying'
p591
I1934
sS'basmati'
p592
I2565
sS'zesty'
p593
I4024
sS'14'
p594
I841
sS'overbearing'
p595
I1094
sS'bar'
p596
I262
sS'flour'
p597
I1614
sS'covering'
p598
I2652
sS'nicely'
p599
I2584
sS'sligtly'
p600
I2885
sS'dipping'
p601
I4348
sS'lexington'
p602
I1779
sS'bay'
p603
I3561
sS'whitefish'
p604
I3216
sS'twice'
p605
I476
sS'bad'
p606
I1031
sS'architecture'
p607
I2060
sS'18'
p608
I3329
sS'grilled'
p609
I448
sS'wannabe'
p610
I2966
sS'aesthetic'
p611
I2865
sS'steak'
p612
I282
sS'explanations'
p613
I1341
sS'distinguishes'
p614
I4198
sS'saul'
p615
I2001
sS'attest'
p616
I3687
sS'disaster'
p617
I2895
sS'fair'
p618
I12
sS'implies'
p619
I3787
sS'fluffy'
p620
I4121
sS'lemonade'
p621
I3745
sS'asterisks'
p622
I4236
sS'eleven'
p623
I4216
sS'sturgeon'
p624
I4292
sS'pinot'
p625
I1975
sS'decided'
p626
I1318
sS'result'
p627
I3455
sS'reviewer'
p628
I1998
sS'miserable'
p629
I3036
sS'terrine'
p630
I3323
sS'noodles'
p631
I295
sS'midst'
p632
I4309
sS'alternative'
p633
I2430
sS'best'
p634
I158
sS'00'
p635
I2106
sS'said'
p636
I969
sS'48th'
p637
I2680
sS'michelin'
p638
I2530
sS'pressured'
p639
I397
sS'coats'
p640
I2306
sS'lots'
p641
I1659
sS'away'
p642
I675
sS'gentleman'
p643
I3788
sS'rushing'
p644
I3122
sS'grandmother'
p645
I4268
sS'mud'
p646
I2849
sS'unable'
p647
I1063
sS'slighly'
p648
I3121
sS'hopefully'
p649
I2241
sS'yogurt'
p650
I4443
sS'drawn'
p651
I3005
sS'sorts'
p652
I4189
sS'metrazur'
p653
I1504
sS'skimpy'
p654
I3177
sS'we'
p655
I141
sS'men'
p656
I1795
sS'triples'
p657
I1061
sS'kruno'
p658
I720
sS'wo'
p659
I1294
sS'smelled'
p660
I658
sS'team'
p661
I4218
sS'fruits'
p662
I1422
sS'packaged'
p663
I1029
sS'however'
p664
I980
sS'wu'
p665
I669
sS'packages'
p666
I3553
sS'blasted'
p667
I1498
sS'kitchen'
p668
I38
sS'suggested'
p669
I878
sS'received'
p670
I1242
sS'essentially'
p671
I4124
sS'accident'
p672
I4036
sS'met'
p673
I3836
sS'pits'
p674
I406
sS'jelly'
p675
I1583
sS'against'
p676
I172
sS'hummus'
p677
I2813
sS'film'
p678
I3433
sS'layered'
p679
I4139
sS'cod'
p680
I2075
sS'hated'
p681
I2208
sS'pita'
p682
I2285
sS'uni'
p683
I2272
sS'requests'
p684
I2105
sS'freshest'
p685
I1722
sS'asked'
p686
I176
sS'con'
p687
I4002
sS'30th'
p688
I1271
sS'nikki'
p689
I4109
sS'tone'
p690
I3515
sS'imaginative'
p691
I3893
sS'appeared'
p692
I2988
sS'character'
p693
I2062
sS'2nd'
p694
I2623
sS'flames'
p695
I3942
sS'tons'
p696
I2646
sS'non'
p697
I1965
sS'tony'
p698
I2300
sS'loaded'
p699
I3156
sS'dhal'
p700
I3586
sS'speak'
p701
I2533
sS'bathroom'
p702
I2666
sS'proceeded'
p703
I1161
sS'particulary'
p704
I1372
sS'beef'
p705
I977
sS'frist'
p706
I2490
sS'fri'
p707
I2687
sS'remained'
p708
I2974
sS'three'
p709
I269
sS'been'
p710
I307
sS'.'
I9
sS'commission'
p711
I3208
sS'beer'
p712
I355
sS'much'
p713
I1145
sS'sommelier'
p714
I2404
sS'substandard'
p715
I3888
sS'basic'
p716
I1974
sS'expected'
p717
I1175
sS'curried'
p718
I3877
sS'entered'
p719
I2737
sS'lovely'
p720
I1461
sS'incompetent'
p721
I2346
sS'containers'
p722
I1165
sS'threw'
p723
I1268
sS'website'
p724
I1802
sS'obtained'
p725
I3437
sS'life'
p726
I990
sS'dotp'
p727
I3980
sS'families'
p728
I2748
sS'recomend'
p729
I1992
sS'relaxing'
p730
I1533
sS'eastern'
p731
I4190
sS'americanized'
p732
I3096
sS'catering'
p733
I1624
sS'chill'
p734
I2821
sS'hoist'
p735
I1573
sS'child'
p736
I641
sS'catch'
p737
I1251
sS'worked'
p738
I1622
sS'voices'
p739
I3716
sS'160'
p740
I2414
sS'teapot'
p741
I692
sS'currys'
p742
I2782
sS'gracious'
p743
I1869
sS'dash'
p744
I4164
sS'exception'
p745
I2322
sS'save'
p746
I937
sS'heartland'
p747
I2886
sS'pungent'
p748
I4347
sS'say'
p749
I1134
sS'remaining'
p750
I1861
sS'employ'
p751
I3466
sS'voluminous'
p752
I2793
sS'lizard'
p753
I649
sS'melted'
p754
I2137
sS'suppose'
p755
I2189
sS'virgnin'
p756
I1776
sS'balance'
p757
I2121
sS'k'
I1451
sS'silken'
p758
I3935
sS'skiline'
p759
I2874
sS'jamun'
p760
I1569
sS'hunan'
p761
I3775
sS'played'
p762
I114
sS'dumplings'
p763
I889
sS'pizzerias'
p764
I3772
sS'is'
p765
I31
sS'sushi'
p766
I259
sS'it'
p767
I48
sS'proportioned'
p768
I3635
sS'shame'
p769
I2081
sS'haunts'
p770
I4406
sS'upscale'
p771
I585
sS'cans'
p772
I837
sS'in'
p773
I75
sS'daiquiries'
p774
I3619
sS'seattle'
p775
I3250
sS'ie'
p776
I123
sS'if'
p777
I159
sS'memorial'
p778
I2786
sS'bottles'
p779
I836
sS'descent'
p780
I3293
sS'vintages'
p781
I4163
sS'portobello'
p782
I3221
sS'things'
p783
I688
sS'make'
p784
I23
sS'toaster'
p785
I2365
sS'airport'
p786
I3030
sS'greengrass'
p787
I1517
sS'300'
p788
I3411
sS'drawback'
p789
I2864
sS'patient'
p790
I1397
sS'split'
p791
I73
sS'unfortunate'
p792
I4086
sS'bands'
p793
I2686
sS'vegetable'
p794
I2380
sS'plates'
p795
I1619
sS'several'
p796
I1599
sS'mayo'
p797
I3217
sS'unforgetable'
p798
I3111
sS'european'
p799
I2462
sS'fairly'
p800
I2243
sS'tiffin'
p801
I2857
sS'boiled'
p802
I783
sS'fuss'
p803
I4204
sS'hang'
p804
I389
sS'evil'
p805
I3245
sS'hand'
p806
I1217
sS'delight'
p807
I1743
sS'fridays'
p808
I253
sS'garlic'
p809
I664
sS'characters'
p810
I1987
sS'groundbreaking'
p811
I1199
sS'tuna'
p812
I518
sS'opportunity'
p813
I4133
sS'cocoa'
p814
I4146
sS'butter'
p815
I2840
sS'sushimi'
p816
I3365
sS'kept'
p817
I603
sS'condiments'
p818
I1166
sS'jekyll'
p819
I3160
sS'caserole'
p820
I3763
sS'parathas'
p821
I2990
sS'humble'
p822
I2128
sS'thr'
p823
I2351
sS'berate'
p824
I1162
sS'udon'
p825
I870
sS'burgers'
p826
I3720
sS'client'
p827
I1345
sS'greatest'
p828
I2188
sS'qualities'
p829
I3606
sS'thh'
p830
I2397
sS'claims'
p831
I3080
sS'the'
p832
I2
sS'smoked'
p833
I1468
sS'yours'
p834
I2641
sS'left'
p835
I120
sS'seasonal'
p836
I2541
sS'concoctions'
p837
I3998
sS'appease'
p838
I4118
sS'just'
p839
I148
sS'bargain'
p840
I2804
sS'gods'
p841
I2117
sS'sporting'
p842
I4172
sS'somethings'
p843
I2913
sS'human'
p844
I3995
sS'lassi'
p845
I1855
sS'yes'
p846
I628
sS'yet'
p847
I89
sS'previous'
p848
I1997
sS'terrific'
p849
I86
sS'ham'
p850
I3988
sS'brassiere'
p851
I3278
sS'legion'
p852
I2722
sS'burnt'
p853
I2387
sS'ease'
p854
I2739
sS'boot'
p855
I2980
sS'had'
p856
I316
sS'ideal'
p857
I3328
sS'wings'
p858
I4366
sS'boston'
p859
I3422
sS'shout'
p860
I2444
sS'spread'
p861
I1332
sS'sterile'
p862
I3819
sS'board'
p863
I1037
sS'belly'
p864
I1764
sS'east'
p865
I1142
sS'sorbets'
p866
I4078
sS'luscious'
p867
I4059
sS'gave'
p868
I1882
sS'actresses'
p869
I3436
sS'scatty'
p870
I2181
sS'tatin'
p871
I2826
sS'boxed'
p872
I3220
sS'specia'
p873
I3148
sS'manhathan'
p874
I1909
sS'yuzu'
p875
I2961
sS'possible'
p876
I2767
sS'ballato'
p877
I3154
sS'creatively'
p878
I2373
sS'fusion'
p879
I1523
sS'discreet'
p880
I3155
sS'3pm'
p881
I2672
sS'background'
p882
I2792
sS'consisted'
p883
I3222
sS'judge'
p884
I2177
sS'unique'
p885
I1376
sS'6:00'
p886
I1633
sS'apart'
p887
I3721
sS'desire'
p888
I3844
sS'sliced'
p889
I2219
sS'flavoring'
p890
I3311
sS'gift'
p891
I2030
sS'virgins'
p892
I3704
sS'55'
p893
I3211
sS'croquette'
p894
I1900
sS'performing'
p895
I4009
sS'50'
p896
I1811
sS'nanbu'
p897
I3760
sS'remind'
p898
I1365
sS'attitue'
p899
I4013
sS'sparse'
p900
I3316
sS'night'
p901
I566
sS'hung'
p902
I3756
sS'notorious'
p903
I2140
sS'revisiting'
p904
I1053
sS'unagi'
p905
I4378
sS'guests'
p906
I401
sS'antique'
p907
I690
sS'portuguese'
p908
I4028
sS'right'
p909
I461
sS'old'
p910
I1329
sS'deal'
p911
I834
sS'people'
p912
I186
sS'easy'
p913
I2126
sS'proudly'
p914
I40
sS'somehow'
p915
I2778
sS'platters'
p916
I3818
sS'usher'
p917
I2989
sS'escape'
p918
I3906
sS'stix'
p919
I4333
sS'bore'
p920
I4298
sS'varietys'
p921
I3129
sS'jeffery'
p922
I2036
sS'confusing'
p923
I3447
sS'okra'
p924
I1473
sS'for'
p925
I25
sS'informative'
p926
I2095
sS'carts'
p927
I2893
sS'phenomenal'
p928
I1398
sS'pregnant'
p929
I4261
sS'ice'
p930
I180
sS'creative'
p931
I1375
sS'everything'
p932
I403
sS'icy'
p933
I1782
sS'asking'
p934
I2476
sS'maitre'
p935
I599
sS'hollondaise'
p936
I1024
sS'lahore'
p937
I563
sS'adorable'
p938
I3848
sS'slurry'
p939
I3091
sS'carte'
p940
I3076
sS'bisque'
p941
I2762
sS'burg'
p942
I2467
sS'shakes'
p943
I1314
sS'tartar'
p944
I519
sS'overhauled'
p945
I2858
sS'corn'
p946
I2664
sS'burn'
p947
I1665
sS'waitressing'
p948
I1262
sS'discount'
p949
I3731
sS'buffet'
p950
I2487
sS'keeper'
p951
I4169
sS'memorable'
p952
I2881
sS'peep'
p953
I755
sS'super'
p954
I205
sS'lights'
p955
I3741
sS'chilean'
p956
I1035
sS'benches'
p957
I175
sS'inedible'
p958
I1693
sS'handle'
p959
I3419
sS'dollars'
p960
I575
sS'months'
p961
I792
sS'barebecued'
p962
I3259
sS'o'
I1450
sS'sizzling'
p963
I3945
sS'dinner'
p964
I338
sS'dined'
p965
I2000
sS'plus'
p966
I1195
sS'afternoon'
p967
I729
sS'emilio'
p968
I1378
sS'obv'
p969
I3127
sS'lacked'
p970
I2367
sS'curry'
p971
I1323
sS'automatically'
p972
I4272
sS'beacuse'
p973
I3992
sS'satay'
p974
I4405
sS'raised'
p975
I4421
sS'watering'
p976
I1825
sS'managers'
p977
I562
sS'trendies'
p978
I4371
sS'tastier'
p979
I2637
sS'wasting'
p980
I1136
sS'soh'
p981
I2590
sS'hustled'
p982
I2954
sS'delighted'
p983
I1709
sS'soo'
p984
I3563
sS'puke'
p985
I3240
sS'down'
p986
I346
sS'lies'
p987
I780
sS'loin'
p988
I3728
sS'explain'
p989
I2287
sS'adventure'
p990
I4362
sS'soy'
p991
I871
sS'cattle'
p992
I4338
sS'refined'
p993
I593
sS'orsay'
p994
I1463
sS'grabbed'
p995
I3566
sS'wan'
p996
I2529
sS'severely'
p997
I4430
sS'crowd'
p998
I902
sS'amazingly'
p999
I2044
sS'support'
p1000
I1137
sS'constantly'
p1001
I1623
sS'knowing'
p1002
I2914
sS'bukhara'
p1003
I636
sS'gig'
p1004
I2945
sS'absolutely'
p1005
I1715
sS'leaf'
p1006
I2459
sS'way'
p1007
I1124
sS'spring'
p1008
I3601
sS'gin'
p1009
I1064
sS'innovators'
p1010
I2765
sS'was'
p1011
I4
sS'happy'
p1012
I651
sS'fork'
p1013
I4296
sS'head'
p1014
I826
sS'medium'
p1015
I3518
sS'offering'
p1016
I325
sS'offer'
p1017
I922
sS'magnificent'
p1018
I1952
sS'gorgeous'
p1019
I1955
sS'eater'
p1020
I2077
sS'heat'
p1021
I2514
sS'uncle'
p1022
I772
sS'justify'
p1023
I2947
sS'true'
p1024
I775
sS'eastsider'
p1025
I2233
sS'mouthed'
p1026
I4353
sS'portions'
p1027
I983
sS'beets'
p1028
I4140
sS'happen'
p1029
I2960
sS'pretension'
p1030
I2269
sS'inside'
p1031
I1060
sS'blantently'
p1032
I2725
sS'attached'
p1033
I1565
sS'maximum'
p1034
I1320
sS'tell'
p1035
I919
sS'nicest'
p1036
I1344
sS'lays'
p1037
I2043
sS'sapphire'
p1038
I1460
sS'servings'
p1039
I1910
sS'unusually'
p1040
I2626
sS'intrusive'
p1041
I3083
sS'seafood'
p1042
I1238
sS'mesclun'
p1043
I1746
sS'adorn'
p1044
I1875
sS'oldies'
p1045
I3432
sS'trio'
p1046
I3861
sS'expresso'
p1047
I2977
sS'sticks'
p1048
I3813
sS'classic'
p1049
I584
sS'frederick'
p1050
I1868
sS'covers'
p1051
I3501
sS'sticky'
p1052
I801
sS'calzones'
p1053
I1547
sS'sometime'
p1054
I1317
sS'promised'
p1055
I1151
sS'fashioned'
p1056
I1330
sS'tea'
p1057
I2904
sS'yuck'
p1058
I1551
sS'mediocre'
p1059
I2074
sS'annoying'
p1060
I950
sS'check'
p1061
I138
sS'marinated'
p1062
I2561
sS'nj'
p1063
I2544
sS'tradional'
p1064
I3162
sS'floor'
p1065
I251
sS'tabouleh'
p1066
I4053
sS'accomodating'
p1067
I1079
sS'tip'
p1068
I1099
sS'topped'
p1069
I2934
sS'whem'
p1070
I327
sS'power'
p1071
I3853
sS'ny'
p1072
I365
sS'setting'
p1073
I358
sS'holding'
p1074
I839
sS'test'
p1075
I3171
sS'smell'
p1076
I2614
sS'roll'
p1077
I494
sS'realize'
p1078
I3188
sS'truffles'
p1079
I3860
sS'reconsider'
p1080
I1052
sS'juices'
p1081
I4103
sS'why'
p1082
I1342
sS'felt'
p1083
I395
sS'uniformly'
p1084
I32
sS'polite'
p1085
I1642
sS'transported'
p1086
I2205
sS'fell'
p1087
I3631
sS'fedeli'
p1088
I2982
sS'scores'
p1089
I1228
sS'pizzas'
p1090
I545
sS'weekend'
p1091
I1129
sS'died'
p1092
I3517
sS'temple'
p1093
I4215
sS'99'
p1094
I3739
sS'dulce'
p1095
I2852
sS'happening'
p1096
I1555
sS'apology'
p1097
I1243
sS'phone'
p1098
I1530
sS'swarming'
p1099
I4150
sS'bottom'
p1100
I3354
sS'flag'
p1101
I4295
sS'together'
p1102
I1770
sS'purple'
p1103
I3509
sS'time'
p1104
I577
sS'push'
p1105
I1567
sS'serious'
p1106
I258
sS'someplace'
p1107
I3377
sS'stacks'
p1108
I835
sS'overdue'
p1109
I1249
sS'precise'
p1110
I532
sS'concept'
p1111
I211
sS'managed'
p1112
I2779
sS'lemons'
p1113
I3835
sS'chain'
p1114
I3063
sS'whoever'
p1115
I2469
sS'dance'
p1116
I1927
sS'skip'
p1117
I1525
sS'rudeness'
p1118
I3873
sS'alternatives'
p1119
I4264
sS'roe'
p1120
I1469
sS'deliveries'
p1121
I1465
sS'leads'
p1122
I829
sS'roy'
p1123
I4234
sS'mild'
p1124
I293
sS'qualms'
p1125
I2738
sS'comments'
p1126
I3056
sS'understandable'
p1127
I2695
sS'chair'
p1128
I3062
sS'milk'
p1129
I1421
sS'devoted'
p1130
I3774
sS'certainly'
p1131
I1677
sS'uneven'
p1132
I524
sS'yummy'
p1133
I2094
sS'itsuperb'
p1134
I2834
sS'technique'
p1135
I3066
sS'father'
p1136
I771
sS'disgusting'
p1137
I3520
sS'busboy'
p1138
I2973
sS'environment'
p1139
I351
sS'company'
p1140
I1508
sS'charge'
p1141
I856
sS'compensate'
p1142
I2700
sS'face'
p1143
I4438
sS'marks'
p1144
I3263
sS'indoor'
p1145
I3639
sS'icing'
p1146
I2642
sS'3am'
p1147
I2157
sS'shepherds'
p1148
I4427
sS'grilling'
p1149
I3699
sS'lanterna'
p1150
I2256
sS'thawed'
p1151
I3247
sS'vegan'
p1152
I3915
sS'choice'
p1153
I885
sS'pleasnt'
p1154
I2953
sS'tanks'
p1155
I2740
sS'cook'
p1156
I2556
sS'bartender'
p1157
I723
sS'trouble'
p1158
I571
sS'margarite'
p1159
I1652
sS'uneventful'
p1160
I3832
sS'caprese'
p1161
I2279
sS'minute'
p1162
I2689
sS'cool'
p1163
I288
sS'dim'
p1164
I1055
sS'cooks'
p1165
I2606
sS'mahi'
p1166
I3679
sS'staples'
p1167
I1257
sS'level'
p1168
I1109
sS'did'
p1169
I116
sS'die'
p1170
I520
sS'cheapest'
p1171
I3470
sS'fettucino'
p1172
I3914
sS'empenadas'
p1173
I4274
sS'standards'
p1174
I1235
sS'specials'
p1175
I334
sS'item'
p1176
I1030
sS'taxan'
p1177
I3493
sS'excellence'
p1178
I1408
sS'subway'
p1179
I3633
sS'section'
p1180
I1942
sS'quick'
p1181
I666
sS'sidewalk'
p1182
I1809
sS'dip'
p1183
I410
sS'round'
p1184
I1600
sS'dis'
p1185
I1454
sS'porridge'
p1186
I517
sS'pork'
p1187
I1075
sS'unexpected'
p1188
I2933
sS'says'
p1189
I677
sS'regret'
p1190
I2270
sS'seasoning'
p1191
I1394
sS'sigh'
p1192
I1798
sS'discover'
p1193
I2574
sS'cosi'
p1194
I4039
sS'steaks'
p1195
I843
sS'snapple'
p1196
I3169
sS'cost'
p1197
I1537
sS'decour'
p1198
I3714
sS'dried'
p1199
I3921
sS'comforting'
p1200
I3275
sS'utter'
p1201
I2141
sS'gigondas'
p1202
I2788
sS'eating'
p1203
I46
sS'chicken'
p1204
I66
sS'gnocchi'
p1205
I3808
sS'drinks'
p1206
I143
sS'tapioca'
p1207
I3538
sS'tartare'
p1208
I1897
sS'stands'
p1209
I1008
sS'movies'
p1210
I4263
sS'boutiques'
p1211
I4368
sS'unheralded'
p1212
I443
sS'melt'
p1213
I1177
sS'current'
p1214
I3326
sS'remembered'
p1215
I2716
sS'deficiencies'
p1216
I28
sS'dimsum'
p1217
I3358
sS'goes'
p1218
I3399
sS'shared'
p1219
I2312
sS'ground'
p1220
I2955
sS'filled'
p1221
I369
sS'satisfy'
p1222
I366
sS'crispier'
p1223
I2729
sS'jury'
p1224
I4387
sS'caveat'
p1225
I3876
sS'basketful'
p1226
I2080
sS'mussels'
p1227
I274
sS'negative'
p1228
I4074
sS'appetites'
p1229
I3710
sS'1oz'
p1230
I1701
sS'french'
p1231
I459
sS'water'
p1232
I862
sS'fluke'
p1233
I2581
sS'entertain'
p1234
I1240
sS'groups'
p1235
I1601
sS'alone'
p1236
I183
sS'noir'
p1237
I1976
sS'along'
p1238
I1307
sS'appears'
p1239
I2742
sS'change'
p1240
I865
sS'wait'
p1241
I453
sS'box'
p1242
I3031
sS'buck'
p1243
I1603
sS'incoming'
p1244
I400
sS'accomplishes'
p1245
I2131
sS'thirty'
p1246
I3654
sS'healthy'
p1247
I2633
sS'root'
p1248
I2129
sS'overflowing'
p1249
I2447
sS'atomosphere'
p1250
I3146
sS'crumbled'
p1251
I132
sS'lingered'
p1252
I3729
sS'suggestion'
p1253
I193
sS'usually'
p1254
I68
sS'conveniently'
p1255
I858
sS'entrees'
p1256
I380
sS'taipei'
p1257
I428
sS'underdeserving'
p1258
I1147
sS'gorgeously'
p1259
I1919
sS'fortune'
p1260
I4175
sS'love'
p1261
I538
sS'raise'
p1262
I3715
sS'extra'
p1263
I855
sS'inducing'
p1264
I1550
sS'pony'
p1265
I2084
sS'prefer'
p1266
I4441
sS'marked'
p1267
I4235
sS'marvelous'
p1268
I1641
sS'1st'
p1269
I2289
sS'prompt'
p1270
I289
sS'rarely'
p1271
I2781
sS'thia'
p1272
I3685
sS'market'
p1273
I4138
sS'flavors'
p1274
I2111
sS'ottimo'
p1275
I3751
sS'crammed'
p1276
I3511
sS'picky'
p1277
I4058
sS'handled'
p1278
I2941
sS'pere'
p1279
I466
sS'sake'
p1280
I386
sS'positive'
p1281
I1123
sS'angry'
p1282
I3765
sS'pints'
p1283
I3469
sS'visit'
p1284
I1696
sS'saketini'
p1285
I4196
sS'abroad'
p1286
I2350
sS'taramasalata'
p1287
I4442
sS'yum'
p1288
I3649
sS'live'
p1289
I1100
sS'wood'
p1290
I2862
sS'wonderfully'
p1291
I2040
sS'garnished'
p1292
I4136
sS'wondering'
p1293
I4023
sS'msg'
p1294
I1843
sS'cheescake'
p1295
I2573
sS'scopa'
p1296
I1950
sS'today'
p1297
I2930
sS'loving'
p1298
I3130
sS'son'
p1299
I3248
sS'sharing'
p1300
I2196
sS'lawns'
p1301
I1185
sS'repast'
p1302
I4130
sS'club'
p1303
I863
sS'share'
p1304
I1481
sS'acceptable'
p1305
I2950
sS'chocolate'
p1306
I932
sS'downtown'
p1307
I217
sS'insultingly'
p1308
I3483
sS'ceviche'
p1309
I887
sS'olive'
p1310
I1777
sS'effort'
p1311
I903
sS'malai'
p1312
I2381
sS'diner'
p1313
I1424
sS'pumkin'
p1314
I927
sS'8pm'
p1315
I973
sS'tokyo'
p1316
I2572
sS'car'
p1317
I3403
sS'boarderline'
p1318
I3136
sS'soul'
p1319
I3999
sS'trang'
p1320
I975
sS'flagship'
p1321
I993
sS'soup'
p1322
I869
sS'foodies'
p1323
I3870
sS'sour'
p1324
I3213
sS'values'
p1325
I810
sS'can'
p1326
I296
sS'growing'
p1327
I1820
sS'making'
p1328
I785
sS'meatball'
p1329
I3856
sS'ribs'
p1330
I3564
sS'heart'
p1331
I3611
sS'crazy'
p1332
I383
sS'valentines'
p1333
I3024
sS'mayonaise'
p1334
I4250
sS'predict'
p1335
I4178
sS'awesome'
p1336
I1274
sS'confused'
p1337
I2007
sS'sample'
p1338
I78
sS'heard'
p1339
I1503
sS'<pad>'
p1340
I0
sS'chin'
p1341
I3357
sS'incredible'
p1342
I215
sS'allowed'
p1343
I2918
sS'heatlhy'
p1344
I4148
sS'chic'
p1345
I2927
sS'nagging'
p1346
I4415
sS'pink'
p1347
I2083
sS'indifferent'
p1348
I4339
sS'winter'
p1349
I2251
sS'piled'
p1350
I1390
sS'nonchalant'
p1351
I3529
sS'spreads'
p1352
I388
sS'ping'
p1353
I2735
sS'nyu'
p1354
I1004
sS'write'
p1355
I430
sS'till'
p1356
I972
sS'sunday'
p1357
I2139
sS'nyc'
p1358
I508
sS'speaks'
p1359
I2774
sS'etched'
p1360
I3461
sS'product'
p1361
I3985
sS'cocktail'
p1362
I2237
sS'may'
p1363
I456
sS'max'
p1364
I2200
sS'spot'
p1365
I219
sS'unobtrusive'
p1366
I941
sS'secluded'
p1367
I2407
sS'mac'
p1368
I4064
sS'birthday'
p1369
I1272
sS'mad'
p1370
I2347
sS'date'
p1371
I732
sS'such'
p1372
I301
sS'appitizers'
p1373
I3438
sS'guys'
p1374
I2441
sS'grow'
p1375
I557
sS'unbelievably'
p1376
I3961
sS'man'
p1377
I1149
sS'muggy'
p1378
I1193
sS'prooudly'
p1379
I2532
sS'classics'
p1380
I2655
sS'varieties'
p1381
I515
sS'agreable'
p1382
I3048
sS'whenever'
p1383
I1796
sS'maybe'
p1384
I475
sS'tapas'
p1385
I1712
sS'voice'
p1386
I4066
sS'exterminator'
p1387
I3530
sS'st'
p1388
I101
sS'provide'
p1389
I3886
sS'si'
p1390
I3907
sS'ducasse'
p1391
I2152
sS'so'
p1392
I5
sS'deposit'
p1393
I2899
sS'fajita'
p1394
I3895
sS'pulled'
p1395
I3003
sS'talk'
p1396
I144
sS'typical'
p1397
I1532
sS'drunken'
p1398
I3025
sS'cute'
p1399
I231
sS'approx'
p1400
I2678
sS'serving'
p1401
I2079
sS'veg'
p1402
I3736
sS'everybody'
p1403
I3580
sS'exclaimed'
p1404
I1604
sS'indeed'
p1405
I2072
sS'differences'
p1406
I3251
sS'displayed'
p1407
I2531
sS'years'
p1408
I1588
sS'course'
p1409
I319
sS'chickpea'
p1410
I4350
sS'thinner'
p1411
I2728
sS'terrace'
p1412
I419
sS'shake'
p1413
I2608
sS'argued'
p1414
I4440
sS'whats'
p1415
I3589
sS'prosecco'
p1416
I650
sS'still'
p1417
I506
sS'christmas'
p1418
I3795
sS'trifle'
p1419
I3879
sS'boys'
p1420
I3986
sS'group'
p1421
I1304
sS'thank'
p1422
I2448
sS'sripraphai'
p1423
I3372
sS'perrrrrrrrrfect'
p1424
I2215
sS'interesting'
p1425
I1522
sS'bagels'
p1426
I82
sS'appetizers'
p1427
I1209
sS'hot'
p1428
I127
sS'faves'
p1429
I2808
sS'attraction'
p1430
I2971
sS'window'
p1431
I2507
sS'offers'
p1432
I809
sS'celebrate'
p1433
I2618
sS'dreadfully'
p1434
I4180
sS'brusquely'
p1435
I4206
sS'ours'
p1436
I2213
sS'main'
p1437
I1215
sS'unaccommodating'
p1438
I561
sS'instantly'
p1439
I1887
sS'tonic'
p1440
I1065
sS'chalk'
p1441
I3266
sS'matches'
p1442
I1173
sS'hinting'
p1443
I2477
sS'omakase'
p1444
I3064
sS'killer'
p1445
I3499
sS'uws'
p1446
I2171
sS'thalia'
p1447
I3191
sS'lunch'
p1448
I337
sS'overpowering'
p1449
I3577
sS'tails'
p1450
I3426
sS'scalina'
p1451
I2981
sS'half'
p1452
I76
sS'not'
p1453
I53
sS'feature'
p1454
I2676
sS'nov'
p1455
I1556
sS'now'
p1456
I1202
sS'hall'
p1457
I1852
sS'runners'
p1458
I3116
sS'matched'
p1459
I4293
sS'moist'
p1460
I1920
sS'term'
p1461
I1732
sS'name'
p1462
I513
sS'slurp'
p1463
I297
sS'opera'
p1464
I3504
sS'january'
p1465
I1220
sS'outrageously'
p1466
I2103
sS'zabars'
p1467
I1515
sS'dabs'
p1468
I4399
sS'couteract'
p1469
I3780
sS'em'
p1470
I2016
sS'el'
p1471
I4088
sS'stalling'
p1472
I486
sS'square'
p1473
I2010
sS'bday'
p1474
I4410
sS'footing'
p1475
I3402
sS'simplicity'
p1476
I3692
sS'ed'
p1477
I3067
sS'yeah'
p1478
I3370
sS'strangest'
p1479
I4265
sS'wrap'
p1480
I2382
sS'fires'
p1481
I2253
sS'catching'
p1482
I2488
sS'entering'
p1483
I1865
sS'year'
p1484
I4135
sS'ew'
p1485
I2516
sS'requesting'
p1486
I2506
sS'salads'
p1487
I848
sS'adequately'
p1488
I3634
sS'es'
p1489
I3379
sS'microwave'
p1490
I4107
sS'living'
p1491
I3443
sS'waitstaff'
p1492
I1352
sS'3rd'
p1493
I2715
sS'space'
p1494
I750
sS'furthermore'
p1495
I3519
sS'looking'
p1496
I999
sS'lad'
p1497
I2324
sS'seriously'
p1498
I3269
sS'unforgettable'
p1499
I3828
sS'cobb'
p1500
I2939
sS'internet'
p1501
I2736
sS'pizzeria'
p1502
I2744
sS'correct'
p1503
I3369
sS'shows'
p1504
I1986
sS'earlier'
p1505
I1120
sS'octopus'
p1506
I1839
sS'tempura'
p1507
I895
sS'ocasionally'
p1508
I607
sS'million'
p1509
I4149
sS'cart'
p1510
I2456
sS'quite'
p1511
I154
sS'oasis'
p1512
I521
sS'complicated'
p1513
I739
sS'besides'
p1514
I1826
sS'skillfully'
p1515
I4027
sS'vegetarians'
p1516
I3396
sS'marine'
p1517
I3010
sS'solicitous'
p1518
I4034
sS'card'
p1519
I2029
sS'care'
p1520
I1138
sS'quesedilla'
p1521
I4087
sS'advance'
p1522
I793
sS'selections'
p1523
I1223
sS'waiter'
p1524
I1252
sS'punk'
p1525
I112
sS'modest'
p1526
I4040
sS'thing'
p1527
I394
sS'funky'
p1528
I726
sS'delights'
p1529
I4055
sS'place'
p1530
I230
sS'think'
p1531
I376
sS'frequent'
p1532
I1596
sS'first'
p1533
I416
sS'exotic'
p1534
I2369
sS'cheese'
p1535
I124
sS'yourselves'
p1536
I3667
sS'saving'
p1537
I1155
sS'revenue'
p1538
I955
sS'lone'
p1539
I4244
sS'yourself'
p1540
I1085
sS'clumsy'
p1541
I2176
sS'tamari'
p1542
I2485
sS'mignon'
p1543
I959
sS'fast'
p1544
I208
sS'spanish'
p1545
I4254
sS'carry'
p1546
I769
sS'impossible'
p1547
I1112
sS'sounds'
p1548
I3267
sS'open'
p1549
I1158
sS'fornini'
p1550
I1789
sS'size'
p1551
I356
sS'disinterested'
p1552
I3830
sS'city'
p1553
I235
sS'little'
p1554
I55
sS'walnuts'
p1555
I3643
sS'checked'
p1556
I474
sS'bts'
p1557
I3286
sS'stuck'
p1558
I3232
sS'fl'
p1559
I2901
sS'bite'
p1560
I730
sS't'
I2610
sS'anyone'
p1561
I2027
sS'2'
I708
sS'freebie'
p1562
I4241
sS'stuffed'
p1563
I2547
sS'masala'
p1564
I2869
sS'white'
p1565
I831
sS'inovated'
p1566
I1962
sS'friend'
p1567
I914
sS'gives'
p1568
I1964
sS'eyes'
p1569
I2323
sS'impresses'
p1570
I3207
sS'mostly'
p1571
I2357
sS'that'
p1572
I228
sS'appreciates'
p1573
I3071
sS'40times'
p1574
I2772
sS'ridiculous'
p1575
I3070
sS'cleaned'
p1576
I3592
sS'lage'
p1577
I3416
sS'simmered'
p1578
I1586
sS'fooled'
p1579
I2147
sS'thai'
p1580
I309
sS'inludes'
p1581
I2336
sS'undoubtedly'
p1582
I3145
sS'than'
p1583
I491
sS'specify'
p1584
I3421
sS'boyfriend'
p1585
I1083
sS'11'
p1586
I2425
sS'10'
p1587
I2032
sS'13'
p1588
I3205
sS'bored'
p1589
I374
sS'15'
p1590
I469
sS'unfortunately'
p1591
I402
sS'16'
p1592
I2400
sS'19'
p1593
I1636
sS'scrumptious'
p1594
I2337
sS'showcase'
p1595
I3065
sS'midtown'
p1596
I949
sS'r'
I233
sS'apples'
p1597
I3089
sS'venture'
p1598
I2743
sS'were'
p1599
I58
sS'cards'
p1600
I3646
sS'delivary'
p1601
I4076
sS'gigantic'
p1602
I2446
sS'dissapointed'
p1603
I4182
sS'sublime'
p1604
I2195
sS'lunches'
p1605
I4071
sS'and'
p1606
I65
sS'alot'
p1607
I1949
sS'coconut'
p1608
I1494
sS'tasted'
p1609
I1336
sS'angel'
p1610
I1566
sS'sal'
p1611
I767
sS'slaw'
p1612
I854
sS'parking'
p1613
I3404
sS'turned'
p1614
I967
sS'locations'
p1615
I4260
sS'sad'
p1616
I3009
sS'ant'
p1617
I1799
sS'tarte'
p1618
I2825
sS'tastes'
p1619
I660
sS'pastry'
p1620
I276
sS'offerng'
p1621
I1878
sS'lurking'
p1622
I3007
sS'breakfast'
p1623
I3981
sS'saw'
p1624
I709
sS'any'
p1625
I1096
sS'sat'
p1626
I261
sS'lumpy'
p1627
I3233
sS'bijin'
p1628
I3761
sS'greek'
p1629
I4426
sS'efficient'
p1630
I437
sS'answering'
p1631
I3445
sS'aside'
p1632
I2842
sS'hotspot'
p1633
I2063
sS'note'
p1634
I1067
sS'dining'
p1635
I361
sS'emphasis'
p1636
I2011
sS'potential'
p1637
I2283
sS'take'
p1638
I918
sS'delcious'
p1639
I3701
sS'forming'
p1640
I3991
sS'interior'
p1641
I165
sS'performance'
p1642
I3069
sS'concern'
p1643
I3120
sS'tequila'
p1644
I4072
sS'200'
p1645
I1392
sS'begin'
p1646
I2688
sS'sure'
p1647
I1224
sS'amiable'
p1648
I3289
sS'theatre'
p1649
I1541
sS'opposite'
p1650
I2235
sS'track'
p1651
I1737
sS'cheesecake'
p1652
I1159
sS'price'
p1653
I241
sS'knew'
p1654
I332
sS'israeli'
p1655
I4370
sS'paid'
p1656
I1174
sS'specialty'
p1657
I3417
sS'boiling'
p1658
I3815
sS'importantly'
p1659
I2911
sS'pricy'
p1660
I3762
sS'pair'
p1661
I1496
sS'america'
p1662
I1580
sS']'
I4402
sS'rivals'
p1663
I2571
sS'forever'
p1664
I1553
sS'especially'
p1665
I822
sS'surprising'
p1666
I1361
sS'izakaya'
p1667
I1091
sS'considered'
p1668
I2599
sS'dream'
p1669
I3547
sS'average'
p1670
I20
sS'later'
p1671
I1982
sS'drive'
p1672
I954
sS'spill'
p1673
I4184
sS'soho'
p1674
I3174
sS'hear'
p1675
I1730
sS'salt'
p1676
I2091
sS'quantity'
p1677
I244
sS'slope'
p1678
I1300
sS'rating'
p1679
I1803
sS'walking'
p1680
I702
sS'shot'
p1681
I3885
sS'cherry'
p1682
I4342
sS'show'
p1683
I1244
sS'lotus'
p1684
I2458
sS'hamburger'
p1685
I3919
sS'mains'
p1686
I877
sS'cheap'
p1687
I569
sS'contemporary'
p1688
I3944
sS'corned'
p1689
I1388
sS'discovered'
p1690
I2734
sS'primavera'
p1691
I4382
sS'bright'
p1692
I2510
sS'executed'
p1693
I1200
sS'inconsistent'
p1694
I1833
sS'corner'
p1695
I1370
sS'molars'
p1696
I1938
sS'superb'
p1697
I3226
sS'calamari'
p1698
I875
sS'maine'
p1699
I2273
sS'cheeseburgers'
p1700
I3723
sS'crackling'
p1701
I2894
sS'kar'
p1702
I4179
sS'slow'
p1703
I981
sS'ratio'
p1704
I3238
sS'selecion'
p1705
I2228
sS'title'
p1706
I2952
sS'40pp'
p1707
I1041
sS'treasure'
p1708
I2650
sS'cheeseburger'
p1709
I2526
sS'3'
I1017
sS'texture'
p1710
I87
sS'crime'
p1711
I3855
sS'inconsistant'
p1712
I4224
sS'only'
p1713
I14
sS'going'
p1714
I591
sS'black'
p1715
I106
sS'watching'
p1716
I1810
sS'recipes'
p1717
I4237
sS'bridge'
p1718
I2479
sS'graceless'
p1719
I3989
sS'pastrami'
p1720
I1327
sS'get'
p1721
I77
sS'jazz'
p1722
I1751
sS'freezing'
p1723
I4243
sS'milkshakes'
p1724
I3874
sS'truly'
p1725
I1667
sS'leon'
p1726
I2883
sS'state'
p1727
I4308
sS'bagles'
p1728
I1333
sS'nearly'
p1729
I1278
sS'lighter'
p1730
I4277
sS'mulino'
p1731
I2411
sS'flavour'
p1732
I3142
sS'candles'
p1733
I3613
sS'gem'
p1734
I1592
sS'jokes'
p1735
I3900
sS'prime'
p1736
I2248
sS'lollies'
p1737
I3336
sS'pinnacle'
p1738
I3149
sS'girl'
p1739
I3350
sS'seldom'
p1740
I1545
sS'thinly'
p1741
I3979
sS'primi'
p1742
I3053
sS'isnt'
p1743
I1499
sS'absurdly'
p1744
I2172
sS'morning'
p1745
I1933
sS'seatin'
p1746
I2054
sS'decker'
p1747
I3495
sS'velvety'
p1748
I4144
sS'dough'
p1749
I1612
sS'finishing'
p1750
I572
sS'unappealing'
p1751
I2962
sS'where'
p1752
I488
sS'husband'
p1753
I925
sS'ignored'
p1754
I1253
sS'concert'
p1755
I4356
sS'multiplied'
p1756
I3603
sS'imposing'
p1757
I3361
sS'seat'
p1758
I2290
sS'cocktails'
p1759
I2820
sS'pleasently'
p1760
I3881
sS'college'
p1761
I3771
sS'anyways'
p1762
I2484
sS'replied'
p1763
I2460
sS'broadway'
p1764
I2871
sS'custards'
p1765
I1528
sS'ruined'
p1766
I2085
sS'courted'
p1767
I4045
sS'wonder'
p1768
I299
sS'palette'
p1769
I3143
sS'satisfying'
p1770
I2471
sS'ways'
p1771
I2452
sS'crawfish'
p1772
I782
sS'review'
p1773
I431
sS'boy'
p1774
I4423
sS'definite'
p1775
I2349
sS'malted'
p1776
I4000
sS'outside'
p1777
I1038
sS'chewy'
p1778
I88
sS'favourites'
p1779
I4025
sS'between'
p1780
I2769
sS'enjoys'
p1781
I3450
sS'welcomes'
p1782
I1047
sS'across'
p1783
I724
sS'edamame'
p1784
I1072
sS'affordable'
p1785
I234
sS'5:30'
p1786
I2861
sS'notice'
p1787
I2127
sS'tuk'
p1788
I643
sS'spare'
p1789
I3072
sS'diners'
p1790
I1660
sS'chaats'
p1791
I2342
sS'chick'
p1792
I3972
sS'come'
p1793
I246
sS'dates'
p1794
I2575
sS'fried'
p1795
I265
sS'signed'
p1796
I3938
sS'guffaw'
p1797
I4220
sS'poivre'
p1798
I284
sS'successes'
p1799
I3892
sS'many'
p1800
I308
sS'23'
p1801
I2399
sS'gimmicks'
p1802
I2773
sS'quiet'
p1803
I2118
sS'contract'
p1804
I2898
sS'blasts'
p1805
I2225
sS'somewhere'
p1806
I3782
sS's'
I2197
sS'patrons'
p1807
I1828
sS'disappointment'
p1808
I1607
sS'chorizo'
p1809
I4246
sS'pureed'
p1810
I2394
sS'comes'
p1811
I913
sS'nearby'
p1812
I668
sS'duty'
p1813
I4388
sS'among'
p1814
I728
sS'flavorless'
p1815
I982
sS'napolean'
p1816
I4379
sS'effective'
p1817
I2551
sS'pot'
p1818
I1452
sS'jeans'
p1819
I1482
sS'venues'
p1820
I2165
sS','
I13
sS'60'
p1821
I2360
sS'anti'
p1822
I873
sS'leche'
p1823
I2854
sS'moreover'
p1824
I2104
sS'writing'
p1825
I2048
sS'cokes'
p1826
I3209
sS'boat'
p1827
I3841
sS'logic'
p1828
I2917
sS'considering'
p1829
I1350
sS'mare'
p1830
I2619
sS'awsome'
p1831
I2267
sS'supportive'
p1832
I3912
sS'companionship'
p1833
I2708
sS'capable'
p1834
I37
sS'west'
p1835
I2125
sS'skew'
p1836
I2161
sS'blend'
p1837
I2839
sS'mark'
p1838
I759
sS'cared'
p1839
I2521
sS'peaceful'
p1840
I3472
sS'featuring'
p1841
I737
sS'hardly'
p1842
I3689
sS'ravioli'
p1843
I1198
sS'odessa'
p1844
I4096
sS'engine'
p1845
I2440
sS'lanes'
p1846
I3758
sS'tasteless'
p1847
I2088
sS'ala'
p1848
I3388
sS'offered'
p1849
I1716
sS'squash'
p1850
I3298
sS'photos'
p1851
I1488
sS'figured'
p1852
I2545
sS'wake'
p1853
I3051
sS'eaters'
p1854
I1840
sS'foggy'
p1855
I2875
sS'undercooked'
p1856
I1829
sS'attentive'
p1857
I756
sS'offeres'
p1858
I1929
sS'those'
p1859
I644
sS'case'
p1860
I3004
sS'myself'
p1861
I542
sS'folding'
p1862
I3913
sS'carozza'
p1863
I3551
sS'these'
p1864
I1169
sS'might'
p1865
I880
sS'worried'
p1866
I2777
sS'chinatown'
p1867
I1234
sS'cash'
p1868
I2052
sS'resturant'
p1869
I2963
sS"n't"
p1870
I22
sS'diverse'
p1871
I2819
sS'editorial'
p1872
I1435
sS'promising'
p1873
I2710
sS'squeezed'
p1874
I1576
sS'shops'
p1875
I815
sS'kennsington'
p1876
I3695
sS'singleminded'
p1877
I3882
sS'rings'
p1878
I3869
sS'ive'
p1879
I306
sS'bathrooms'
p1880
I3768
sS'eventually'
p1881
I4431
sS'parmigiana'
p1882
I3866
sS'appetizing'
p1883
I1514
sS'coffee'
p1884
I2372
sS'edge'
p1885
I3757
sS'couples'
p1886
I3571
sS'middle'
p1887
I1792
sS'someone'
p1888
I632
sS'kha'
p1889
I1845
sS'experiance'
p1890
I743
sS'obnoxious'
p1891
I2294
sS'stickers'
p1892
I1453
sS'floating'
p1893
I2163
sS'snobby'
p1894
I2500
sS'sucking'
p1895
I3834
sS'pastas'
p1896
I1259
sS'erroneously'
p1897
I2361
sS'harsh'
p1898
I3880
sS'disloyal'
p1899
I3284
sS'il'
p1900
I2410
sS'pay'
p1901
I503
sS'granted'
p1902
I749
sS'reminded'
p1903
I2983
sS'sketchy'
p1904
I3235
sS'same'
p1905
I1032
sS'trip'
p1906
I3043
sS'ya'
p1907
I549
sS'pad'
p1908
I800
sS'uncourteous'
p1909
I2696
sS'frequented'
p1910
I2067
sS'subtly'
p1911
I4239
sS'pam'
p1912
I2758
sS'week'
p1913
I1221
sS'finish'
p1914
I323
sS'tipsy'
p1915
I2259
sS'singapore'
p1916
I2343
sS'companion'
p1917
I3042
sS'devoid'
p1918
I2308
sS'running'
p1919
I2907
sS'fruit'
p1920
I2583
sS'casserole'
p1921
I3018
sS'deff'
p1922
I551
sS'statue'
p1923
I1188
sS'disapointing'
p1924
I2385
sS'changing'
p1925
I1385
sS'totally'
p1926
I2419
sS'reference'
p1927
I4259
sS'complained'
p1928
I1335
sS'theater'
p1929
I471
sS'sunken'
p1930
I3816
sS'keeping'
p1931
I3781
sS'largely'
p1932
I4125
sS'cajun'
p1933
I4367
sS'swiftys'
p1934
I4249
sS'no'
p1935
I179
sS'breezy'
p1936
I3019
sS'otherworldly'
p1937
I3674
sS'without'
p1938
I1069
sS'veal'
p1939
I3550
sS'puree'
p1940
I1073
sS'oreganta'
p1941
I2559
sS'alfredo'
p1942
I3865
sS'bumping'
p1943
I4279
sS'amazed'
p1944
I441
sS'charged'
p1945
I1830
sS'summer'
p1946
I1911
sS'outdoor'
p1947
I1744
sS'steamed'
p1948
I2436
sS'clogging'
p1949
I2712
sS'being'
p1950
I113
sS'money'
p1951
I162
sS'guided'
p1952
I1967
sS'adjustments'
p1953
I4014
sS'rest'
p1954
I1232
sS'kill'
p1955
I852
sS'showed'
p1956
I3706
sS'braised'
p1957
I3117
sS'touch'
p1958
I1676
sS'n'
I3534
sS'flavor'
p1959
I1176
sS'reality'
p1960
I1804
sS'barbecued'
p1961
I1917
sS'afterwards'
p1962
I2674
sS'refills'
p1963
I1894
sS'sampled'
p1964
I4312
sS'death'
p1965
I2658
sS'clueless'
p1966
I901
sS'hint'
p1967
I4145
sS'thinking'
p1968
I1292
sS'rose'
p1969
I2180
sS'seems'
p1970
I1260
sS'except'
p1971
I317
sS'complain'
p1972
I2281
sS'lets'
p1973
I1507
sS'interested'
p1974
I2100
sS'9:30'
p1975
I3516
sS'4'
I378
sS'sampler'
p1976
I1977
sS'moules'
p1977
I1382
sS'extensive'
p1978
I2258
sS'hotdogs'
p1979
I3960
sS'tuesday'
p1980
I3393
sS'styles'
p1981
I1487
sS'starving'
p1982
I1194
sS'anchovy'
p1983
I4328
sS'around'
p1984
I415
sS'spectacular'
p1985
I1216
sS'playfull'
p1986
I3331
sS'read'
p1987
I2472
sS'fridge'
p1988
I3556
sS'muffins'
p1989
I3984
sS'dark'
p1990
I1348
sS'department'
p1991
I3940
sS'focacchia'
p1992
I4416
sS'traffic'
p1993
I986
sS'preference'
p1994
I3252
sS'listening'
p1995
I1340
sS'styled'
p1996
I3100
sS'world'
p1997
I285
sS'execution'
p1998
I533
sS'disappointed'
p1999
I1295
sS'dare'
p2000
I1289
sS'furniture'
p2001
I2856
sS'commend'
p2002
I2265
sS'clam'
p2003
I1119
sS'x4'
p2004
I3604
sS'margheritta'
p2005
I2268
sS'atlhough'
p2006
I3593
sS'nt'
p2007
I3722
sS'everytime'
p2008
I3663
sS'greeting'
p2009
I1380
sS'serves'
p2010
I1581
sS'server'
p2011
I473
sS'facing'
p2012
I966
sS'panchetta'
p2013
I2388
sS'either'
p2014
I947
sS'fully'
p2015
I2136
sS'nosh'
p2016
I3607
sS'served'
p2017
I662
sS'tower'
p2018
I2632
sS'tart'
p2019
I3535
sS'landscaping'
p2020
I4396
sS'vegtables'
p2021
I2146
sS'seating'
p2022
I594
sS'maximize'
p2023
I2282
sS'vip'
p2024
I4161
sS'overworked'
p2025
I4340
sS'naan'
p2026
I1179
sS'elements'
p2027
I4230
sS'lobster'
p2028
I484
sS'atmorphere'
p2029
I753
sS"'s"
p2030
I49
sS'pickles'
p2031
I189
sS'divine'
p2032
I3974
sS'macadamia'
p2033
I4238
sS'redeeming'
p2034
I15
sS'excelent'
p2035
I3306
sS'provided'
p2036
I1673
sS'slice'
p2037
I1563
sS'atmoshere'
p2038
I2625
sS'drenched'
p2039
I1790
sS'patroon'
p2040
I2568
sS'fondue'
p2041
I1836
sS'overly'
p2042
I1236
sS'reallocating'
p2043
I2284
sS'tots'
p2044
I3983
sS'favourite'
p2045
I1649
sS'hipster'
p2046
I2965
sS'nigiri'
p2047
I2059
sS'provides'
p2048
I3730
sS'happened'
p2049
I1899
sS'forks'
p2050
I2812
sS'moderate'
p2051
I1724
sS'thali'
p2052
I3294
sS'turkey'
p2053
I2261
sS'welcome'
p2054
I3905
sS'wheat'
p2055
I2220
sS'roast'
p2056
I1074
sS'business'
p2057
I881
sS'intimate'
p2058
I1001
sS'sixth'
p2059
I1727
sS'chefs'
p2060
I168
sS'ration'
p2061
I2226
sS'olives'
p2062
I4329
sS'broken'
p2063
I3270
sS'secondi'
p2064
I3054
sS'wong'
p2065
I2317
sS'nightcap'
p2066
I2403
sS'accompany'
p2067
I3997
sS'thailand'
p2068
I153
sS'exciting'
p2069
I2018
sS'throw'
p2070
I2897
sS'cheff'
p2071
I1963
sS'comparison'
p2072
I816
sS'uncrowded'
p2073
I3847
sS'ok'
p2074
I898
sS'unattentive'
p2075
I707
sS'oh'
p2076
I548
sS'of'
p2077
I29
sS'industry'
p2078
I1759
sS'paninis'
p2079
I1654
sS'favorite'
p2080
I62
sS'inviting'
p2081
I2307
sS'side'
p2082
I612
sS'chop'
p2083
I1680
sS'pistachio'
p2084
I1720
sS'snack'
p2085
I2848
sS'stand'
p2086
I823
sS'neighbor'
p2087
I1321
sS'chow'
p2088
I2671
sS'ow'
p2089
I2588
sS'ou'
p2090
I2609
sS'luck'
p2091
I905
sS'or'
p2092
I52
sS'road'
p2093
I851
sS'advanatage'
p2094
I2702
sS'wontons'
p2095
I2090
sS'quietly'
p2096
I2443
sS'cambridge'
p2097
I3425
sS'utterly'
p2098
I3871
sS'burning'
p2099
I2657
sS'gari'
p2100
I1893
sS'russe'
p2101
I3650
sS'cuisin'
p2102
I2684
sS'nazi'
p2103
I2906
sS'charts'
p2104
I2159
sS'clams'
p2105
I2015
sS'lively'
p2106
I2884
sS'heated'
p2107
I3086
sS'england'
p2108
I2759
sS'jerusalem'
p2109
I4137
sS'your'
p2110
I411
sS'upstairs'
p2111
I3095
sS'buds'
p2112
I367
sS'dishs'
p2113
I4256
sS'her'
p2114
I710
sS'area'
p2115
I460
sS'unisex'
p2116
I3591
sS'removing'
p2117
I1023
sS'sipping'
p2118
I3616
sS'there'
p2119
I489
sS'hey'
p2120
I3686
sS'desert'
p2121
I341
sS'sampling'
p2122
I2046
sS'start'
p2123
I1821
sS'poured'
p2124
I2356
sS'mondays'
p2125
I1324
sS'low'
p2126
I1351
sS'liang'
p2127
I670
sS'slowly'
p2128
I4432
sS'lox'
p2129
I1331
sS'energy'
p2130
I2919
sS'inobtrusive'
p2131
I3242
sS'cinna'
p2132
I4332
sS'spicy'
p2133
I1118
sS'complete'
p2134
I1042
sS'enough'
p2135
I72
sS'vindaloo'
p2136
I2041
sS'alain'
p2137
I2151
sS'delayed'
p2138
I595
sS'sophisticated'
p2139
I4349
sS'curiously'
p2140
I1922
sS'omelet'
p2141
I125
sS'e'
I1630
sS'trying'
p2142
I1319
sS'with'
p2143
I34
sS'buying'
p2144
I1907
sS'spice'
p2145
I1208
sS'pull'
p2146
I4131
sS'rush'
p2147
I1288
sS'raga'
p2148
I1521
sS'romantic'
p2149
I359
sS'potato'
p2150
I3050
sS'ludlow'
p2151
I4369
sS'strawberry'
p2152
I3618
sS'harried'
p2153
I4123
sS'grass'
p2154
I2922
sS'agree'
p2155
I1089
sS'clear'
p2156
I3013
sS'detailed'
p2157
I330
sS'gone'
p2158
I968
sS'ac'
p2159
I2604
sS'palate'
p2160
I1656
sS'taste'
p2161
I85
sS'certain'
p2162
I1256
sS'am'
p2163
I910
sS'mike'
p2164
I2134
sS'deep'
p2165
I504
sS'an'
p2166
I84
sS'imagination'
p2167
I3002
sS'as'
p2168
I149
sS'ar'
p2169
I1988
sS'tasty'
p2170
I568
sS'at'
p2171
I223
sS'areally'
p2172
I3925
sS'girlfriend'
p2173
I2493
sS'lifetime'
p2174
I1442
sS'rapido'
p2175
I3801
sS'sommlier'
p2176
I738
sS'tasts'
p2177
I1446
sS'fill'
p2178
I1560
sS'again'
p2179
I640
sS'stumbled'
p2180
I248
sS'edibility'
p2181
I2564
sS'2003'
p2182
I1912
sS'deserve'
p2183
I979
sS'floored'
p2184
I1841
sS'drafty'
p2185
I1513
sS'rubber'
p2186
I3246
sS'tight'
p2187
I1511
sS'5'
I379
sS'lafayette'
p2188
I2578
sS'you'
p2189
I43
sS'tagliatelle'
p2190
I2089
sS'dismayed'
p2191
I3531
sS'poor'
p2192
I243
sS'requested'
p2193
I3490
sS'strokes'
p2194
I3505
sS'branzino'
p2195
I449
sS'students'
p2196
I1005
sS'makhani'
p2197
I3308
sS'forgettable'
p2198
I1858
sS'reccommend'
p2199
I2230
sS'peas'
p2200
I3973
sS'includes'
p2201
I3292
sS'herbs'
p2202
I2122
sS'important'
p2203
I682
sS'peak'
p2204
I2035
sS'unattractive'
p2205
I3178
sS'fresh'
p2206
I661
sS'included'
p2207
I886
sS'velvet'
p2208
I4143
sS'kompot'
p2209
I4098
sS'alcohol'
p2210
I3157
sS'building'
p2211
I824
sS'booked'
p2212
I3798
sS'candlelight'
p2213
I4113
sS'wife'
p2214
I1190
sS'mash'
p2215
I1632
sS'sopaipillas'
p2216
I3927
sS'u'
I2741
sS'pigalle'
p2217
I4306
sS'stringy'
p2218
I799
sS'directory'
p2219
I3228
sS'songs'
p2220
I105
sS'stock'
p2221
I3555
sS'original'
p2222
I3558
sS'teriyaki'
p2223
I2755
sS'all'
p2224
I26
sS'sicilian'
p2225
I2968
sS'consider'
p2226
I541
sS'chinese'
p2227
I667
sS'chillis'
p2228
I3994
sS'mozzerella'
p2229
I1620
sS'beware'
p2230
I3937
sS'lack'
p2231
I1068
sS'dollar'
p2232
I1500
sS'month'
p2233
I2663
sS'code'
p2234
I3608
sS'parmesan'
p2235
I3079
sS'dish'
p2236
I74
sS'partial'
p2237
I3807
sS'porcini'
p2238
I2087
sS'hardcore'
p2239
I2613
sS'reluctant'
p2240
I2814
sS'dreadful'
p2241
I2437
sS'careful'
p2242
I1837
sS'homage'
p2243
I4344
sS'everywhere'
p2244
I2948
sS'regulars'
p2245
I2721
sS'dumpling'
p2246
I1834
sS'sashimi'
p2247
I891
sS'to'
p2248
I7
sS'tail'
p2249
I3541
sS'wants'
p2250
I3610
sS'dinnertime'
p2251
I2384
sS'graciously'
p2252
I3198
sS'dressing'
p2253
I280
sS'smile'
p2254
I774
sS'nori'
p2255
I2428
sS'enjoying'
p2256
I344
sS'presentation'
p2257
I1231
sS'marscapone'
p2258
I4343
sS'paying'
p2259
I3559
sS'woman'
p2260
I2770
sS'premium'
p2261
I2863
sS'worse'
p2262
I2359
sS'sitting'
p2263
I171
sS'very'
p2264
I36
sS'overdone'
p2265
I1214
sS'focus'
p2266
I3327
sS'worst'
p2267
I1022
sS'got'
p2268
I210
sS'awful'
p2269
I654
sS'difference'
p2270
I3955
sS'margareta'
p2271
I3910
sS'pre'
p2272
I470
sS'heaven'
p2273
I1618
sS'ranting'
p2274
I3033
sS'sans'
p2275
I2162
sS'kati'
p2276
I2635
sS'list'
p2277
I305
sS'manager'
p2278
I722
sS'grandfather'
p2279
I2798
sS'large'
p2280
I1286
sS'dinosaur'
p2281
I3806
sS'prosciutto'
p2282
I1650
sS'steakhouse'
p2283
I3400
sS'westernized'
p2284
I4377
sS'candlevery'
p2285
I3690
sS'small'
p2286
I442
sS'chilaquiles'
p2287
I1752
sS'cookies'
p2288
I4176
sS'neighborhood'
p2289
I218
sS'gnochi'
p2290
I3202
sS'attended'
p2291
I2298
sS'onglet'
p2292
I2656
sS'nearing'
p2293
I2943
sS'past'
p2294
I598
sS'burger'
p2295
I1258
sS'rate'
p2296
I2158
sS'design'
p2297
I146
sS'pass'
p2298
I2086
sS'awhile'
p2299
I3933
sS'further'
p2300
I3113
sS'pretentious'
p2301
I3849
sS'casual'
p2302
I1239
sS'ribbon'
p2303
I1326
sS'creatures'
p2304
I3014
sS'gorgonzola'
p2305
I3863
sS'cheeses'
p2306
I2371
sS'what'
p2307
I333
sS'stood'
p2308
I1337
sS'risen'
p2309
I768
sS'sun'
p2310
I2038
sS'sum'
p2311
I1056
sS'crust'
p2312
I634
sS'anniversary'
p2313
I3810
sS'attentative'
p2314
I4115
sS'tanya'
p2315
I3273
sS'version'
p2316
I2375
sS'apologized'
p2317
I601
sS'scallops'
p2318
I1704
sS'pialla'
p2319
I4417
sS'chelsea'
p2320
I3839
sS'contrast'
p2321
I2515
sS'poori'
p2322
I4318
sS'condensed'
p2323
I1420
sS'full'
p2324
I1078
sS'dissappointed'
p2325
I3135
sS'decorate'
p2326
I4411
sS'unprofessional'
p2327
I3325
sS'leaping'
p2328
I648
sS'chili'
p2329
I2921
sS'hours'
p2330
I2255
sS'tracks'
p2331
I3022
sS'sardines'
p2332
I1718
sS'parmigana'
p2333
I3747
sS'buzzing'
p2334
I4310
sS'strong'
p2335
I479
sS'respect'
p2336
I2222
sS'personable'
p2337
I1981
sS'chongqing'
p2338
I3754
sS'search'
p2339
I1726
sS'disappointingly'
p2340
I4195
sS'ahead'
p2341
I917
sS'extraordinary'
p2342
I3173
sS'vegetarian'
p2343
I1877
sS'thursday'
p2344
I2348
sS'exceptionally'
p2345
I3669
sS'reason'
p2346
I1284
sS'experience'
p2347
I188
sS'restaraurant'
p2348
I3799
sS'prior'
p2349
I3666
sS'amount'
p2350
I573
sS'lasagna'
p2351
I931
sS'arent'
p2352
I1819
sS'pick'
p2353
I1679
sS'action'
p2354
I264
sS'narrow'
p2355
I828
sS'sweetness'
p2356
I2586
sS'options'
p2357
I1535
sS'outragous'
p2358
I3341
sS'guacamole'
p2359
I2519
sS'family'
p2360
I195
sS'ciro'
p2361
I3638
sS'put'
p2362
I2051
sS'apprised'
p2363
I604
sS'trained'
p2364
I953
sS'chunks'
p2365
I3456
sS'cals'
p2366
I4067
sS'rican'
p2367
I4384
sS'favs'
p2368
I3965
sS'horrid'
p2369
I3625
sS'taglierini'
p2370
I3859
sS'munchies'
p2371
I4375
sS'eye'
p2372
I908
sS'takes'
p2373
I1552
sS'ridding'
p2374
I1915
sS'occassion'
p2375
I2031
sS'blueberry'
p2376
I4032
sS'two'
p2377
I185
sS'resident'
p2378
I2601
sS'torro'
p2379
I3544
sS'6'
I712
sS'taken'
p2380
I2937
sS'chettinad'
p2381
I1856
sS'standed'
p2382
I3956
sS'tinga'
p2383
I3969
sS'more'
p2384
I329
sS'tikka'
p2385
I1178
sS'survive'
p2386
I4429
sS'diamond'
p2387
I2120
sS'door'
p2388
I859
sS'knows'
p2389
I633
sS'kenny'
p2390
I3545
sS'kerosene'
p2391
I659
sS'omelletes'
p2392
I1794
sS'tofu'
p2393
I3197
sS'surprisingly'
p2394
I1631
sS'excuse'
p2395
I2753
sS'mill'
p2396
I3093
sS'dinnerbroker'
p2397
I2673
sS'stick'
p2398
I1510
sS'hissed'
p2399
I3800
sS'particular'
p2400
I882
sS'known'
p2401
I1562
sS'unbeliavably'
p2402
I1334
sS'hurry'
p2403
I1478
sS'eatable'
p2404
I3824
sS'glad'
p2405
I3385
sS'town'
p2406
I256
sS'grill'
p2407
I1994
sS'none'
p2408
I167
sS'pleasing'
p2409
I1849
sS'hour'
p2410
I137
sS'blah'
p2411
I2732
sS'equation'
p2412
I3395
sS'dramatically'
p2413
I3930
sS'nina'
p2414
I1448
sS'mall'
p2415
I3908
sS'del'
p2416
I1080
sS'pinnacles'
p2417
I526
sS'greeted'
p2418
I1866
sS'bruschettas'
p2419
I1653
sS'rigid'
p2420
I3629
sS'martinis'
p2421
I3414
sS'def'
p2422
I2644
sS'beautiful'
p2423
I1184
sS'compare'
p2424
I812
sS'korma'
p2425
I3309
sS'atrocious'
p2426
I868
sS'salted'
p2427
I4069
sS'stated'
p2428
I1502
sS'joints'
p2429
I646
sS'ambient'
p2430
I2570
sS'suggestions'
p2431
I757
sS'accept'
p2432
I3645
sS'minimun'
p2433
I1501
sS'pushed'
p2434
I763
sS'minimum'
p2435
I2050
sS'salty'
p2436
I1283
sS'imitation'
p2437
I3084
sS'sense'
p2438
I1440
sS'sharp'
p2439
I3894
sS'dress'
p2440
I2705
sS'hamburgers'
p2441
I3682
sS'reputation'
p2442
I2661
sS'!'
I145
sS'huge'
p2443
I420
sS'needs'
p2444
I944
sS'cours'
p2445
I2401
sS'court'
p2446
I4116
sS'liver'
p2447
I4322
sS'terribly'
p2448
I3789
sS'rather'
p2449
I860
sS'paratha'
p2450
I3098
sS'chops'
p2451
I2923
sS'rye'
p2452
I1391
sS'shipped'
p2453
I3484
sS'mcds'
p2454
I814
sS'menus'
p2455
I2418
sS'occasionally'
p2456
I2730
sS'worry'
p2457
I2629
sS'freshly'
p2458
I1940
sS'dills'
p2459
I3109
sS'stir'
p2460
I3027
sS'goat'
p2461
I277
sS'pongsri'
p2462
I2679
sS'sq'
p2463
I2543
sS'sandwich'
p2464
I485
sS'okay'
p2465
I867
sS'tried'
p2466
I509
sS'rude'
p2467
I817
sS'nebbiolo'
p2468
I1947
sS'advice'
p2469
I936
sS'different'
p2470
I426
sS'sophistication'
p2471
I2701
sS'reflect'
p2472
I4205
sS'tries'
p2473
I1989
sS'lighting'
p2474
I4004
sS'fe'
p2475
I3133
sS'coming'
p2476
I481
sS'backyard'
p2477
I3452
sS'tacos'
p2478
I3966
sS'authentic'
p2479
I422
sS'a'
I35
sS'snotty'
p2480
I3977
sS'short'
p2481
I1731
sS'crowded'
p2482
I435
sS'coat'
p2483
I2995
sS'mezz'
p2484
I2902
sS'rowdy'
p2485
I4352
sS'eats'
p2486
I1406
sS'anytime'
p2487
I3833
sS'buns'
p2488
I1419
sS'perhaps'
p2489
I2598
sS'chopsticks'
p2490
I412
sS'halibut'
p2491
I2699
sS'overcooked'
p2492
I3234
sS'breads'
p2493
I1689
sS'egg'
p2494
I1527
sS'playing'
p2495
I2791
sS'patio'
p2496
I2518
sS'turnover'
p2497
I1629
sS'pans'
p2498
I1114
sS'miso'
p2499
I2828
sS'bhelpuri'
p2500
I2339
sS'mexican'
p2501
I2309
sS'help'
p2502
I1049
sS'essence'
p2503
I2292
sS'portraits'
p2504
I3435
sS'sooo'
p2505
I1740
sS'soon'
p2506
I1046
sS'mousse'
p2507
I3429
sS'held'
p2508
I3660
sS'attitude'
p2509
I1308
sS'paper'
p2510
I2327
sS'through'
p2511
I1436
sS'lava'
p2512
I552
sS'signs'
p2513
I2417
sS'vittorio'
p2514
I1589
sS'suffer'
p2515
I4316
sS'avenue'
p2516
I808
sS'its'
p2517
I425
sS'arrogant'
p2518
I2173
sS'dont'
p2519
I1088
sS'24'
p2520
I1277
sS'25'
p2521
I1204
sS'style'
p2522
I196
sS'20'
p2523
I1457
sS'toasting'
p2524
I3703
sS'call'
p2525
I1749
sS'pray'
p2526
I2116
sS'greatly'
p2527
I3126
sS'28'
p2528
I3291
sS'actually'
p2529
I802
sS'late'
p2530
I565
sS'bummer'
p2531
I1425
sS'annual'
p2532
I3794
sS'friendliest'
p2533
I2321
sS'pesto'
p2534
I718
sS'margarita'
p2535
I3507
sS'sauce'
p2536
I872
sS'argentine'
p2537
I4245
sS'catfish'
p2538
I4363
sS'colleague'
p2539
I2668
sS'wasabe'
p2540
I2994
sS'snobs'
p2541
I3254
sS'good'
p2542
I94
sS'return'
p2543
I1462
sS'generously'
p2544
I368
sS'consisent'
p2545
I3330
sS'food'
p2546
I17
sS'cannoli'
p2547
I2999
sS'ye'
p2548
I671
sS'wasabi'
p2549
I3718
sS'slight'
p2550
I4153
sS'walls'
p2551
I3241
sS'susans'
p2552
I3727
sS'vomit'
p2553
I1549
sS'starbucks'
p2554
I4162
sS'crowed'
p2555
I4304
sS'adventurous'
p2556
I1401
sS'bigger'
p2557
I3932
sS'impressive'
p2558
I1479
sS'easily'
p2559
I2148
sS'gets'
p2560
I2318
sS'lettuce'
p2561
I3125
sS'always'
p2562
I407
sS'presented'
p2563
I1172
sS'harumi'
p2564
I3842
sS'courses'
p2565
I270
sS'piping'
p2566
I2187
sS'stopped'
p2567
I3032
sS'turns'
p2568
I1363
sS'found'
p2569
I1371
sS'biscuits'
p2570
I1719
sS'caliber'
p2571
I3670
sS'downside'
p2572
I2905
sS'heavy'
p2573
I689
sS'sterling'
p2574
I1736
sS'everyone'
p2575
I1801
sS'knowledgeable'
p2576
I1399
sS'another'
p2577
I326
sS'generation'
p2578
I1788
sS'house'
p2579
I719
sS'fish'
p2580
I536
sS'hard'
p2581
I1935
sS'idea'
p2582
I2683
sS'eve'
p2583
I4386
sS'engaging'
p2584
I3668
sS'exorbitant'
p2585
I3697
sS'oil'
p2586
I1778
sS'expect'
p2587
I1207
sS'doses'
p2588
I4374
sS'haru'
p2589
I821
sS'beyond'
p2590
I797
sS'event'
p2591
I3487
sS'caeser'
p2592
I4301
sS'really'
p2593
I343
sS'leave'
p2594
I408
sS'unsurpassed'
p2595
I2993
sS'lovers'
p2596
I260
sS'missed'
p2597
I1077
sS'wondered'
p2598
I608
sS'mayonaisse'
p2599
I3115
sS'scoops'
p2600
I2851
sS'since'
p2601
I140
sS'continually'
p2602
I3572
sS'soooo'
p2603
I4193
sS'seaport'
p2604
I4026
sS'tiramisu'
p2605
I938
sS'fountain'
p2606
I1895
sS'longtime'
p2607
I3280
sS'7'
I1153
sS'denoted'
p2608
I4232
sS'ass'
p2609
I3047
sS'bistro'
p2610
I704
sS'liquers'
p2611
I1756
sS'sevpuri'
p2612
I2340
sS'boldness'
p2613
I3141
sS'bass'
p2614
I626
sS'pathetic'
p2615
I778
sS'dirt'
p2616
I4211
sS'squished'
p2617
I3340
sS'calzone'
p2618
I2617
sS'friday'
p2619
I1082
sS'guess'
p2620
I3655
sS'pub'
p2621
I2209
sS'pleasant'
p2622
I340
sS'difficulty'
p2623
I2008
sS'experimenting'
p2624
I1122
sS'base'
p2625
I4258
sS'cookie'
p2626
I4177
sS'conditioning'
p2627
I3749
sS'members'
p2628
I3796
sS'imagine'
p2629
I1682
sS'ask'
p2630
I328
sS'attendant'
p2631
I2457
sS'beginning'
p2632
I1645
sS'guy'
p2633
I2170
sS'lag'
p2634
I2293
sS'influences'
p2635
I4063
sS'bumped'
p2636
I3061
sS'owners'
p2637
I1400
sS'premisis'
p2638
I2891
sS'whim'
p2639
I3376
sS'persons'
p2640
I2549
sS'corriander'
p2641
I1313
sS'spinach'
p2642
I2616
sS'terrible'
p2643
I558
sS'noted'
p2644
I2426
sS'gourmet'
p2645
I1407
sS'american'
p2646
I528
sS'expecting'
p2647
I2833
sS'sensations'
p2648
I1710
sS'w'
I2466
sS'neglected'
p2649
I1559
sS'delicate'
p2650
I2070
sS'knots'
p2651
I665
sS'dine'
p2652
I336
sS'guac'
p2653
I4418
sS'seeming'
p2654
I691
sS'slipped'
p2655
I3282
sS'upper'
p2656
I2216
sS'feel'
p2657
I44
sS'knocking'
p2658
I2315
sS'number'
p2659
I1876
sS'fancy'
p2660
I630
sS'valentine'
p2661
I3783
sS'feet'
p2662
I1585
sS'pop'
p2663
I4007
sS'botle'
p2664
I3575
sS'done'
p2665
I1806
sS'bland'
p2666
I559
sS'kips'
p2667
I4019
sS'miss'
p2668
I221
sS'villa'
p2669
I3227
sS'story'
p2670
I1192
sS'heads'
p2671
I1575
sS'guest'
p2672
I924
sS'benedict'
p2673
I1020
sS'twenty'
p2674
I1747
sS'5th'
p2675
I807
sS'brisket'
p2676
I4365
sS'moderately'
p2677
I1070
sS'comfy'
p2678
I3970
sS'least'
p2679
I1135
sS'scallion'
p2680
I1823
sS'wonderful'
p2681
I588
sS'passed'
p2682
I3060
sS'dealing'
p2683
I3803
sS'hundred'
p2684
I916
sS'banana'
p2685
I894
sS'store'
p2686
I4100
sS'jem'
p2687
I2815
sS'tramezzinis'
p2688
I1655
sS'warmly'
p2689
I1280
sS'option'
p2690
I1692
sS'behind'
p2691
I1572
sS'parm'
p2692
I3218
sS'park'
p2693
I2249
sS'hesititate'
p2694
I429
sS'emiliana'
p2695
I4111
sS'appreciation'
p2696
I2830
sS'luckily'
p2697
I620
sS'part'
p2698
I683
sS'typhoon'
p2699
I3262
sS'favorable'
p2700
I3615
sS'burrito'
p2701
I4106
sS'bouche'
p2702
I1881
sS'believe'
p2703
I2997
sS'grace'
p2704
I3204
sS'gret'
p2705
I1930
sS'king'
p2706
I3368
sS'kind'
p2707
I71
sS'b'
I1131
sS'mahal'
p2708
I1144
sS'gotten'
p2709
I454
sS'status'
p2710
I4434
sS'dogs'
p2711
I1107
sS'i'
I95
sS'dank'
p2712
I2354
sS'supposed'
p2713
I2236
sS'outdoors'
p2714
I4395
sS'stale'
p2715
I2108
sS'toward'
p2716
I1968
sS'entranceway'
p2717
I1512
sS'sty'
p2718
I948
sS'delectable'
p2719
I2751
sS'outta'
p2720
I2442
sS'basically'
p2721
I1686
sS'outstanding'
p2722
I54
sS'wasnt'
p2723
I3124
sS'antipasti'
p2724
I2024
sS'suspicious'
p2725
I4132
sS'ages'
p2726
I3444
sS'juicy'
p2727
I1389
sS'juice'
p2728
I2239
sS'substantial'
p2729
I2034
sS'blond'
p2730
I1957
sS'ambitious'
p2731
I2166
sS'qpr'
p2732
I3237
sS'events'
p2733
I4173
sS'tandoori'
p2734
I745
sS'orders'
p2735
I613
sS'sensual'
p2736
I3151
sS'sell'
p2737
I3348
sS'lie'
p2738
I1529
sS'nights'
p2739
I1116
sS'zero'
p2740
I2979
sS'superior'
p2741
I3225
sS'spaghetti'
p2742
I2750
sS'self'
p2743
I1534
sS'severe'
p2744
I4012
sS'port'
p2745
I4029
sS'lit'
p2746
I2817
sS'also'
p2747
I245
sS'historic'
p2748
I3439
sS'costs'
p2749
I1057
sS'lip'
p2750
I2501
sS'sandwiches'
p2751
I1932
sS'finding'
p2752
I2630
sS'langostine'
p2753
I3300
sS'zucchini'
p2754
I2719
sS'unremarkable'
p2755
I3295
sS'fresca'
p2756
I3752
sS'experienced'
p2757
I911
sS'bottle'
p2758
I589
sS'blackboard'
p2759
I3415
sS'eggs'
p2760
I1019
sS'measures'
p2761
I1755
sS'salmon'
p2762
I624
sS'chart'
p2763
I2958
sS'plat'
p2764
I3812
sS'most'
p2765
I534
sS'brooklyn'
p2766
I463
sS'charm'
p2767
I2212
sS'plan'
p2768
I1409
sS'eaten'
p2769
I1578
sS'70'
p2770
I3214
sS'nothing'
p2771
I716
sS'adds'
p2772
I2535
sS'extremely'
p2773
I2109
sS'oyster'
p2774
I3382
sS'appear'
p2775
I2890
sS'understands'
p2776
I686
sS'erbazzone'
p2777
I4110
sS'windows'
p2778
I3039
sS'inspired'
p2779
I2320
sS'sometimes'
p2780
I392
sS'dirty'
p2781
I4217
sS'traditional'
p2782
I103
sS'cramped'
p2783
I2316
sS'bodies'
p2784
I4151
sS'clean'
p2785
I762
sS'notch'
p2786
I1832
sS'beancurd'
p2787
I1423
sS'chowder'
p2788
I2760
sS'particularly'
p2789
I2558
sS'afortune'
p2790
I2378
sS'espresso'
p2791
I3428
sS'lay'
p2792
I2455
sS'mussaman'
p2793
I3196
sS'fillet'
p2794
I2333
sS'frisco'
p2795
I1081
sS'se'
p2796
I2878
sS'fine'
p2797
I529
sS'find'
p2798
I364
sS'faces'
p2799
I2704
sS'wraps'
p2800
I3909
sS'deserts'
p2801
I4081
sS'northern'
p2802
I2206
sS'crawl'
p2803
I4010
sS'gastritis'
p2804
I4317
sS'evoked'
p2805
I2956
sS'unhappy'
p2806
I3664
sS'failed'
p2807
I1025
sS'fellow'
p2808
I2478
sS'wintermelon'
p2809
I2651
sS'central'
p2810
I4155
sS'pretty'
p2811
I93
sS'factor'
p2812
I16
sS'8'
I2415
sS'proximity'
p2813
I4397
sS'hip'
p2814
I2733
sS'palets'
p2815
I3172
sS'his'
p2816
I770
sS'hit'
p2817
I1328
sS'gratis'
p2818
I2395
sS'meanwhile'
p2819
I2391
sS'bend'
p2820
I4424
sS'grocery'
p2821
I2512
sS'cheaper'
p2822
I3652
sS'famous'
p2823
I765
sS'feels'
p2824
I3678
sS'grew'
p2825
I362
sS'batter'
p2826
I3195
sS'fastest'
p2827
I2288
sS'closely'
p2828
I2592
sS'competing'
p2829
I2789
sS'combinations'
p2830
I1892
sS'during'
p2831
I477
sS'gratin'
p2832
I3917
sS'him'
p2833
I2502
sS'catcher'
p2834
I3557
sS'heartier'
p2835
I3709
sS'glorified'
p2836
I2175
sS'crabmeat'
p2837
I930
sS'staffs'
p2838
I3500
sS'common'
p2839
I697
sS'double'
p2840
I2492
sS'hype'
p2841
I4046
sS'river'
p2842
I1187
sS'courteous'
p2843
I2374
sS'wrote'
p2844
I4422
sS'restaurants'
p2845
I310
sS'cole'
p2846
I2859
sS'bars'
p2847
I3688
sS'set'
p2848
I985
sS'art'
p2849
I1808
sS'bart'
p2850
I997
sS'overwhelm'
p2851
I2112
sS'casseroles'
p2852
I3878
sS'raddichio'
p2853
I2389
sS'arrives'
p2854
I2183
sS'doneness'
p2855
I846
sS'toons'
p2856
I313
sS'professional'
p2857
I2528
sS'are'
p2858
I70
sS'sea'
p2859
I625
sS'tender'
p2860
I960
sS'close'
p2861
I1546
sS'heaped'
p2862
I3713
sS'comfort'
p2863
I2142
sS'breast'
p2864
I2764
sS'chose'
p2865
I3183
sS'hibiscus'
p2866
I4392
sS'#'
I2868
sS'drumsticks'
p2867
I3212
sS'patties'
p2868
I2435
sS'expert'
p2869
I155
sS'visiting'
p2870
I2542
sS'pictures'
p2871
I3614
sS'wow'
p2872
I360
sS'please'
p2873
I883
sS'heading'
p2874
I4262
sS'fans'
p2875
I1691
sS'creme'
p2876
I652
sS'various'
p2877
I2326
sS'multiples'
p2878
I3339
sS'tortelini'
p2879
I928
sS'probably'
p2880
I1543
sS'burned'
p2881
I796
sS'champagne'
p2882
I1393
sS'perfectly'
p2883
I2560
sS'compliment'
p2884
I3110
sS'meatsauce'
p2885
I3082
sS'available'
p2886
I1396
sS'laugh'
p2887
I3769
sS'latin'
p2888
I3857
sS'recently'
p2889
I939
sS'sparsely'
p2890
I2935
sS'complementary'
p2891
I1879
sS'initially'
p2892
I3486
sS'sold'
p2893
I3827
sS'attention'
p2894
I904
sS'cabana'
p2895
I3858
sS'competent'
p2896
I2508
sS'both'
p2897
I79
sS'cubes'
p2898
I978
sS'last'
p2899
I576
sS'hesitant'
p2900
I3283
sS'restaurant'
p2901
I405
sS'fiance'
p2902
I1269
sS'treated'
p2903
I1591
sS'barely'
p2904
I2263
sS'remembers'
p2905
I1417
sS'mcdonald'
p2906
I2693
sS'roman'
p2907
I4095
sS'became'
p2908
I1888
sS'eggplant'
p2909
I897
sS'forgotten'
p2910
I681
sS'vault'
p2911
I1437
sS'whole'
p2912
I187
sS'load'
p2913
I3264
sS'subpar'
p2914
I1160
sS'liked'
p2915
I354
sS'decore'
p2916
I3474
sS'study'
p2917
I4400
sS'point'
p2918
I818
sS'simple'
p2919
I1171
sS'sweet'
p2920
I1493
sS'acted'
p2921
I2648
sS'northeastern'
p2922
I1579
sS'manners'
p2923
I4413
sS'community'
p2924
I776
sS'reccomend'
p2925
I3922
sS'improper'
p2926
I3492
sS'scallop'
p2927
I2420
sS'carlo'
p2928
I3598
sS'simply'
p2929
I1315
sS'frosty'
p2930
I4335
sS'village'
p2931
I2037
sS'rave'
p2932
I2577
sS'repeatedly'
p2933
I4433
sS'crispy'
p2934
I627
sS'['
I4401
sS'expensive'
p2935
I1168
sS'belt'
p2936
I2424
sS'souffle'
p2937
I1705
sS'described'
p2938
I1402
sS'jsut'
p2939
I3244
sS'conveyor'
p2940
I3442
sS'overlook'
p2941
I3102
sS'servces'
p2942
I4051
sS'due'
p2943
I2167
sS'dug'
p2944
I4281
sS'hitting'
p2945
I4018
sS'whom'
p2946
I1191
sS'proprietor'
p2947
I1343
sS'megadeth'
p2948
I98
sS'pile'
p2949
I4376
sS'brick'
p2950
I1814
sS'meeting'
p2951
I1002
sS'po'
p2952
I2872
sS'empty'
p2953
I303
sS'pm'
p2954
I1634
sS'lived'
p2955
I988
sS'flight'
p2956
I1542
sS'assorted'
p2957
I890
sS'fire'
p2958
I3939
sS'flavorful'
p2959
I3101
sS'grating'
p2960
I3077
sS'else'
p2961
I404
sS'pricey'
p2962
I1233
sS'understand'
p2963
I487
sS'specifically'
p2964
I1635
sS'overcompensate'
p2965
I2594
sS'prices'
p2966
I225
sS'standout'
p2967
I1570
sS'exquisite'
p2968
I3845
sS'unnecessarily'
p2969
I3085
sS'bruschetta'
p2970
I1411
sS'highest'
p2971
I3954
sS'look'
p2972
I495
sS'hostess'
p2973
I512
sS'patsy'
p2974
I3748
sS'solid'
p2975
I1040
sS'accomodate'
p2976
I1558
sS'reliable'
p2977
I1723
sS'bill'
p2978
I1181
sS'budget'
p2979
I1763
sS'sesame'
p2980
I2421
sS'brilliant'
p2981
I3392
sS'while'
p2982
I963
sS'replaced'
p2983
I1914
sS'match'
p2984
I3192
sS'mimosas'
p2985
I3640
sS'pearls'
p2986
I3539
sS'fun'
p2987
I788
sS'glechik'
p2988
I4157
sS'mostarda'
p2989
I4112
sS'pack'
p2990
I2065
sS'real'
p2991
I1491
sS'larger'
p2992
I1263
sS'hoping'
p2993
I1602
sS'falafel'
p2994
I4052
sS'overlooked'
p2995
I971
sS'drawbacks'
p2996
I1853
sS'mole'
p2997
I3896
sS'rip'
p2998
I2434
sS'encountered'
p2999
I2754
sS'disappointing'
p3000
I748
sS'itself'
p3001
I92
sS'frantic'
p3002
I2169
sS'triple'
p3003
I3494
sS'beautifully'
p3004
I1980
sS'ready'
p3005
I2691
sS'quail'
p3006
I2836
sS'south'
p3007
I2250
sS'cuisine'
p3008
I156
sS'decor'
p3009
I236
sS'barney'
p3010
I1516
sS'italy'
p3011
I2207
sS'8:00'
p3012
I1084
sS'lengths'
p3013
I3964
sS'mint'
p3014
I1707
sS'shorter'
p3015
I1276
sS'rules'
p3016
I4425
sS'kimono'
p3017
I3867
sS'complaints'
p3018
I4408
sS'corridor'
p3019
I579
sS'grand'
p3020
I672
sS'9'
I2959
sS'relatively'
p3021
I2058
sS'higher'
p3022
I1485
sS'confitte'
p3023
I4257
sS'used'
p3024
I1011
sS'fatty'
p3025
I2928
sS'mountain'
p3026
I4049
sS'flooded'
p3027
I1571
sS'gallery'
p3028
I1815
sS'cigar'
p3029
I2569
sS'ziti'
p3030
I3081
sS'unpretensious'
p3031
I357
sS'moment'
p3032
I2536
sS'arrived'
p3033
I1250
sS'hanx'
p3034
I4385
sS'mussel'
p3035
I2795
sS'infused'
p3036
I450
sS'assortment'
p3037
I1410
sS'weird'
p3038
I1226
sS'recent'
p3039
I1695
sS'early'
p3040
I1672
sS'overated'
p3041
I2624
sS'noodle'
p3042
I1681
sS'entre'
p3043
I3378
sS'vinaigrette'
p3044
I4228
sS'sales'
p3045
I4156
sS'cheek'
p3046
I4273
sS'chickens'
p3047
I3897
sS'spent'
p3048
I2254
sS'obviously'
p3049
I1449
sS'sports'
p3050
I4200
sS'person'
p3051
I912
sS'chees'
p3052
I3041
sS'everythig'
p3053
I2978
sS'salvatore'
p3054
I3658
sS'convenient'
p3055
I2082
sS'calcutta'
p3056
I3099
sS'manna'
p3057
I3398
sS'genuinely'
p3058
I1664
sS'spend'
p3059
I1128
sS'chosing'
p3060
I3488
sS'know'
p3061
I647
sS'alluring'
p3062
I734
sS'mom'
p3063
I318
sS'stunningly'
p3064
I4035
sS'quarters'
p3065
I1644
sS'hutner'
p3066
I3770
sS'questions'
p3067
I331
sS'roasted'
p3068
I1638
sS'regardless'
p3069
I915
sS'taiwan'
p3070
I2198
sS'cabaret'
p3071
I2224
sS'hotpot'
p3072
I3755
sS'tables'
p3073
I713
sS'drizzled'
p3074
I2582
sS'cut'
p3075
I3931
sS'chaat'
p3076
I2338
sS'$'
I468
sS'cup'
p3077
I298
sS'surprises'
p3078
I1386
sS'workers'
p3079
I440
sS'percent'
p3080
I2097
sS'likeable'
p3081
I2229
sS'exceed'
p3082
I4226
sS'snag'
p3083
I3389
sS'innovations'
p3084
I1862
sS'source'
p3085
I2332
sS'snappy'
p3086
I1108
sS'pizzaria'
p3087
I698
sS'shoestring'
p3088
I3343
sS'excited'
p3089
I1729
sS'surprised'
p3090
I2138
sS'build'
p3091
I2379
sS'ridiculously'
p3092
I3147
sS'complaint'
p3093
I2628
sS'march'
p3094
I1539
sS'complains'
p3095
I2908
sS'lacking'
p3096
I2003
sS'big'
p3097
I1229
sS'couple'
p3098
I791
sS'unlimited'
p3099
I1904
sS'game'
p3100
I4358
sS'apt'
p3101
I1901
sS'emma'
p3102
I3423
sS'bit'
p3103
I457
sS'%'
I2503
sS'translucent'
p3104
I2498
sS'helpful'
p3105
I1430
sS'd'
I600
sS'semi'
p3106
I1850
sS'admittedly'
p3107
I2335
sS'shabu'
p3108
I2135
sS'ignore'
p3109
I2844
sS'eel'
p3110
I2276
sS'individuals'
p3111
I615
sS'popular'
p3112
I1090
sS'stylish'
p3113
I619
sS'improves'
p3114
I3144
sS'flat'
p3115
I2809
sS'stagnating'
p3116
I1657
sS'often'
p3117
I372
sS'queens'
p3118
I3175
sS'consomme'
p3119
I2130
sS'trendi'
p3120
I680
sS'obliged'
p3121
I1415
sS'sorbet'
p3122
I1708
sS'some'
p3123
I543
sS'back'
p3124
I642
sS'understood'
p3125
I1760
sS'hassle'
p3126
I4085
sS'added'
p3127
I2362
sS'escargot'
p3128
I1480
sS'pricing'
p3129
I3000
sS'trendy'
p3130
I2246
sS'candle'
p3131
I2026
sS'ourselves'
p3132
I345
sS'sauces'
p3133
I2017
sS'godfather'
p3134
I3333
sS'delivered'
p3135
I805
sS'satified'
p3136
I4056
sS'closest'
p3137
I4341
sS'decision'
p3138
I3735
sS'gratuity'
p3139
I4271
sS'per'
p3140
I1255
sS'pen'
p3141
I2987
sS'sneakers'
p3142
I1483
sS'verbally'
p3143
I4266
sS'tends'
p3144
I3579
sS'saag'
p3145
I3962
sS'peg'
p3146
I4351
sS'kai'
p3147
I2071
sS'minimal'
p3148
I3549
sS'nose'
p3149
I1772
sS'amazin'
p3150
I616
sS'be'
p3151
I10
sS'run'
p3152
I1303
sS'rub'
p3153
I1923
sS'bo'
p3154
I995
sS'bi'
p3155
I4407
sS'refused'
p3156
I3449
sS'step'
p3157
I4209
sS'lover'
p3158
I3015
sS'boxes'
p3159
I3777
sS'stew'
p3160
I4097
sS'santa'
p3161
I3132
sS'rearely'
p3162
I3351
sS'orrechiete'
p3163
I63
sS'crap'
p3164
I3092
sS'major'
p3165
I3185
sS'raspberry'
p3166
I4305
sS'bx'
p3167
I4165
sS'by'
p3168
I314
sS'sub'
p3169
I3622
sS'hidden'
p3170
I3767
sS'working'
p3171
I3230
sS'anything'
p3172
I679
sS'raucous'
p3173
I2944
sS'kitchenette'
p3174
I4043
sS'leftover'
p3175
I2495
sS'unconventional'
p3176
I3194
sS'oatmeal'
p3177
I1028
sS'deserves'
p3178
I1267
sS'range'
p3179
I1459
sS'beans'
p3180
I2280
sS'experiences'
p3181
I3131
sS'complimentary'
p3182
I2019
sS'consequently'
p3183
I3719
sS'block'
p3184
I674
sS'72'
p3185
I4047
sS'clubhouse'
p3186
I1954
sS'jimmy'
p3187
I3405
sS'significant'
p3188
I2946
sS'al'
p3189
I4166
sS'into'
p3190
I164
sS'integral'
p3191
I2984
sS'nonsense'
p3192
I1467
sS'servers'
p3193
I899
sS'harasses'
p3194
I4092
sS'appropriate'
p3195
I3107
sS'moshphere'
p3196
I2352
sS'selected'
p3197
I2645
sS'primarily'
p3198
I4253
sS'steven'
p3199
I1867
sS'kielbasa'
p3200
I3090
sS'sized'
p3201
I3496
sS'carpaachio'
p3202
I1944
sS'rolls'
p3203
I892
sS'tator'
p3204
I3982
sS'impressed'
p3205
I587
sS'lonk'
p3206
I1999
sS'canai'
p3207
I4346
sS'tasting'
p3208
I2591
sS'spending'
p3209
I2552
sS'question'
p3210
I3959
sS'long'
p3211
I1248
sS'eventhough'
p3212
I2304
sS'douse'
p3213
I3941
sS'homemade'
p3214
I1211
sS'heritage'
p3215
I1033
sS'forward'
p3216
I639
sS'kamikaze'
p3217
I3112
sS':'
I238
sS'cheeky'
p3218
I3158
sS'considerably'
p3219
I1874
sS'himself'
p3220
I1247
sS'elsewhere'
p3221
I1688
sS'hawaiian'
p3222
I4403
sS'filet'
p3223
I958
sS'jewish'
p3224
I2713
sS'skewers'
p3225
I505
sS'relaxed'
p3226
I618
sS'buttery'
p3227
I3299
sS'paneer'
p3228
I1617
sS'girlfriends'
p3229
I2260
sS'hoped'
p3230
I2932
sS'cuter'
p3231
I2867
sS'link'
p3232
I3636
sS'fettuccine'
p3233
I3864
sS'montparnasse'
p3234
I1671
sS'russian'
p3235
I4158
sS'line'
p3236
I1608
sS'dull'
p3237
I2602
sS'info'
p3238
I3184
sS'faan'
p3239
I209
sS'drinkers'
p3240
I4373
sS'uses'
p3241
I3887
sS'magnificant'
p3242
I445
sS'casablanca'
p3243
I4050
sS'fries'
p3244
I1605
sS'up'
p3245
I24
sS'us'
p3246
I8
sS'par'
p3247
I2150
sS'planet'
p3248
I1728
sS'paired'
p3249
I2099
sS'un'
p3250
I2910
sS'accustomed'
p3251
I427
sS'marginally'
p3252
I4242
sS'ridge'
p3253
I3562
sS'highlight'
p3254
I3114
sS'z'
I110
sS'similar'
p3255
I2164
sS'called'
p3256
I1943
sS'dill'
p3257
I4445
sS'popularity'
p3258
I2168
sS'ordered'
p3259
I446
sS'worthwhile'
p3260
I4251
sS'elegant'
p3261
I2073
sS'inexpertly'
p3262
I2218
sS'chai'
p3263
I3268
sS'``'
p3264
I4233
sS'associates'
p3265
I1003
sS'evening'
p3266
I227
sS'crepes'
p3267
I3934
sS'home'
p3268
I1374
sS'rally'
p3269
I1369
sS'cafe'
p3270
I996
sS'disappoints'
p3271
I3821
sS'rainy'
p3272
I2876
sS'codes'
p3273
I2706
sS'lemon'
p3274
I1775
sS'grp'
p3275
I2903
sS'amounts'
p3276
I3288
sS'baclava'
p3277
I4192
sS'saffron'
p3278
I3680
sS'thinks'
p3279
I4033
sS'nar'
p3280
I2325
sS'nick'
p3281
I4327
sS'points'
p3282
I1230
sS'actors'
p3283
I2827
sS'swirl'
p3284
I413
sS'mayonnaise'
p3285
I117
sS'manhattan'
p3286
I311
sS'nice'
p3287
I339
sS'smiles'
p3288
I2703
sS'draw'
p3289
I2843
sS'varities'
p3290
I2377
sS'gf'
p3291
I2818
sS'mustard'
p3292
I4240
sS'beatiful'
p3293
I3478
sS'gulab'
p3294
I1568
sS'problems'
p3295
I1097
sS'visits'
p3296
I4042
sS'prepared'
p3297
I1615
sS'helping'
p3298
I3137
sS'outs'
p3299
I1666
sS'cater'
p3300
I3104
sS'allowing'
p3301
I1969
sS'dals'
p3302
I1180
sS'brushetta'
p3303
I2454
sS'mott'
p3304
I3319
sS'reservation'
p3305
I590
sS'knishes'
p3306
I3675
sS'sides'
p3307
I849
sS'mood'
p3308
I4187
sS'ago'
p3309
I254
sS'happier'
p3310
I1273
sS'overlooking'
p3311
I1505
sS'practically'
p3312
I3001
sS'ending'
p3313
I4031
sS'asthetically'
p3314
I2328
sS'outing'
p3315
I3345
sS'vow'
p3316
I2916
sS'svc'
p3317
I1973
sS'walked'
p3318
I2302
sS'annoyed'
p3319
I4104
sS'cooked'
p3320
I131
sS'beverage'
p3321
I721
sS'2006'
p3322
I1540
sS'chutneys'
p3323
I3554
sS'wary'
p3324
I4075
sS'manhatten'
p3325
I3712
sS'far'
p3326
I315
sS'beers'
p3327
I921
sS'fussy'
p3328
I4017
sS'buffalo'
p3329
I4330
sS'having'
p3330
I1827
sS'once'
p3331
I1381
sS'northside'
p3332
I2465
sS'katz'
p3333
I2211
sS'teodora'
p3334
I30
sS'jason'
p3335
I1733
sS'rabbit'
p3336
I3916
sS'melts'
p3337
I2841
sS'scratch'
p3338
I2358
sS'enjoyable'
p3339
I1670
sS'desserts'
p3340
I1356
sS'dainty'
p3341
I1780
sS'go'
p3342
I182
sS'reheated'
p3343
I3868
sS'seemed'
p3344
I2450
sS'compact'
p3345
I2353
sS'terms'
p3346
I2685
sS'vietnamese'
p3347
I104
sS'peanut'
p3348
I3702
sS'concerned'
p3349
I1261
sS'shanghai'
p3350
I989
sS'young'
p3351
I1006
sS'kababs'
p3352
I638
sS'culinary'
p3353
I2314
sS'germain'
p3354
I102
sS'starter'
p3355
I1428
sS'penang'
p3356
I3239
sS'ambience'
p3357
I998
sS'include'
p3358
I272
sS'cornelia'
p3359
I2870
sS'friendly'
p3360
I206
sS'waiters'
p3361
I69
sS'stocked'
p3362
I2785
sS'wished'
p3363
I2214
sS'garden'
p3364
I418
sS'dessert'
p3365
I554
sS'listed'
p3366
I3215
sS'screwed'
p3367
I2647
sS'putting'
p3368
I1164
sS'silvano'
p3369
I4077
sS'telling'
p3370
I3094
sS'artery'
p3371
I2711
sS'drinking'
p3372
I2257
sS'unimposing'
p3373
I3342
sS'continued'
p3374
I2392
sS'wipe'
p3375
I3356
sS'challah'
p3376
I3673
sS'edible'
p3377
I3219
sS'timely'
p3378
I1996
sS'entire'
p3379
I478
sS'francois'
p3380
I3413
sS'magic'
p3381
I2554
sS'asparagus'
p3382
I3958
sS'array'
p3383
I3843
sS'murrays'
p3384
I2796
sS'watered'
p3385
I3831
sS'varys'
p3386
I390
sS'try'
p3387
I200
sS'tunnel'
p3388
I2480
sS'skipped'
p3389
I2846
sS'awkardly'
p3390
I3594
sS'busier'
p3391
I1544
sS'rasberry'
p3392
I1706
sS'dealt'
p3393
I2463
sS'lasagnette'
p3394
I352
sS'friendliness'
p3395
I3901
sS'ride'
p3396
I1441
sS'concluded'
p3397
I3471
sS'app'
p3398
I3296
sS'smaller'
p3399
I751
sS'incrediby'
p3400
I4022
sS'xcept'
p3401
I3353
sS'favorites'
p3402
I1018
sS'gosht'
p3403
I3963
sS'uncomfortably'
p3404
I4288
sS'mediterranean'
p3405
I2370
sS'ripped'
p3406
I2504
sS'shrimps'
p3407
I2093
sS'jump'
p3408
I3304
sS'redone'
p3409
I2831
sS'blowing'
p3410
I1762
sS'hyde'
p3411
I3161
sS'booth'
p3412
I1683
sS'uncomfortable'
p3413
I170
sS'subtle'
p3414
I3468
sS'ummm'
p3415
I2998
sS'odd'
p3416
I711
sS'ues'
p3417
I1362
sS'roofdeck'
p3418
I2912
sS'reviews'
p3419
I1051
sS'sausage'
p3420
I64
sS'3x'
p3421
I3473
sS'plays'
p3422
I3503
sS'unavailable'
p3423
I1285
sS'wallet'
p3424
I2567
sS'delicous'
p3425
I2491
sS'dissapointing'
p3426
I3587
sS'sangria'
p3427
I965
sS'overwhelmed'
p3428
I1924
sS'cell'
p3429
I2690
sS'consistently'
p3430
I335
sS'waiting'
p3431
I550
sS'indian'
p3432
I287
sS'chickpeas'
p3433
I4286
sS'phobes'
p3434
I4283
sS'flowing'
p3435
I3641
sS'obvious'
p3436
I2682
sS';'
I3829
sS'piped'
p3437
I1225
sS'refilled'
p3438
I3573
sS'scenery'
p3439
I2800
sS'downright'
p3440
I2698
sS'seine'
p3441
I3272
sS'cozy'
p3442
I464
sS'consistant'
p3443
I2470
sS'urchin'
p3444
I2178
sS'apologetic'
p3445
I3532
sS'gathered'
p3446
I421
sS'pushing'
p3447
I4152
sS'desired'
p3448
I845
sS'quaility'
p3449
I4210
sS'busy'
p3450
I1658
sS'let'
p3451
I321
sS'pancake'
p3452
I2611
sS'cab'
p3453
I4252
sS'ley'
p3454
I2589
sS'scrapped'
p3455
I3453
sS'irritating'
p3456
I3623
sS'extreme'
p3457
I2600
sS'vinegar'
p3458
I1587
sS'great'
p3459
I59
sS'talent'
p3460
I4094
sS'aweful'
p3461
I3512
sS'30'
p3462
I760
sS'spiced'
p3463
I2398
sS'portioins'
p3464
I1445
sS'35'
p3465
I596
sS'leaving'
p3466
I1476
sS'weekday'
p3467
I2482
sS'popcorn'
p3468
I2985
sS'opinion'
p3469
I2449
sS'residents'
p3470
I2223
sS'spices'
p3471
I3045
sS'makes'
p3472
I226
sS'capex'
p3473
I2049
sS'thats'
p3474
I1703
sS'fake'
p3475
I2936
sS'apple'
p3476
I2824
sS'claim'
p3477
I3852
sS'yellowfun'
p3478
I2794
sS'dedicated'
p3479
I4120
sS'private'
p3480
I1851
sS'crosby'
p3481
I1628
sS'names'
p3482
I3159
sS'duck'
p3483
I564
sS'reserved'
p3484
I2271
sS'thick'
p3485
I3627
sS'getup'
p3486
I1916
sS'lime'
p3487
I178
sS'standing'
p3488
I1477
sS'use'
p3489
I629
sS'from'
p3490
I214
sS'thirsty'
p3491
I3790
sS'iced'
p3492
I3123
sS'remains'
p3493
I2069
sS'masaman'
p3494
I2783
sS'hudson'
p3495
I1186
sS'murky'
p3496
I3011
sS'frog'
p3497
I1582
sS'next'
p3498
I580
sS'few'
p3499
I806
sS'doubt'
p3500
I1464
sS'chu'
p3501
I1322
sS'crab'
p3502
I499
sS'humus'
p3503
I4054
sS'means'
p3504
I1948
sS'intend'
p3505
I3166
sS'oily'
p3506
I715
sS'sort'
p3507
I1360
sS'chole'
p3508
I3584
sS'on'
p3509
I50
sS'started'
p3510
I1846
sS'rode'
p3511
I4389
sS'lounge'
p3512
I2970
sS'impress'
p3513
I2468
sS'bike'
p3514
I4390
sS'charming'
p3515
I2192
sS'carrying'
p3516
I2101
sS'whisks'
p3517
I3271
sS'ashamed'
p3518
I2745
sS'baby'
p3519
I544
sS'fillings'
p3520
I3193
sS'billed'
p3521
I4227
sS'broth'
p3522
I294
sS'customer'
p3523
I1305
sS'codfish'
p3524
I1918
sS'salad'
p3525
I278
sS'f'
I3355
sS'this'
p3526
I216
sS'challenge'
p3527
I496
sS'clients'
p3528
I1241
sS'highlighting'
p3529
I2585
sS'critic'
p3530
I2422
sS'pour'
p3531
I1754
sS'donut'
p3532
I2587
sS'extrmely'
p3533
I3479
sS'anywhere'
p3534
I1377
sS'crossed'
p3535
I2427
sS'thin'
p3536
I160
sS'servants'
p3537
I2475
sS'backwards'
p3538
I3951
sS'dhosas'
p3539
I3585
sS'meet'
p3540
I2155
sS'closing'
p3541
I3384
sS'seafoods'
p3542
I191
sS'dropped'
p3543
I4117
sS'tap'
p3544
I1497
sS'patron'
p3545
I3582
sS'plate'
p3546
I133
sS'jealous'
p3547
I4213
sS'mango'
p3548
I3477
sS'pieces'
p3549
I2057
sS'high'
p3550
I583
sS'tag'
p3551
I1205
sS'something'
p3552
I1206
sS'tal'
p3553
I3152
sS'sunglasses'
p3554
I3744
sS'tan'
p3555
I1299
sS'shrimp'
p3556
I1472
sS'onions'
p3557
I3046
sS'tai'
p3558
I2244
sS'taj'
p3559
I1143
sS'acousitcs'
p3560
I3624
sS'lamb'
p3561
I1475
sS'hesitate'
p3562
I1048
sS'tao'
p3563
I2191
sS'varied'
p3564
I2803
sS'friendlier'
p3565
I3229
sS'sit'
p3566
I142
sS'vibe'
p3567
I203
sS'wandered'
p3568
I3038
sS'mein'
p3569
I3522
sS'williamsburg'
p3570
I3570
sS'flaky'
p3571
I2823
sS'regions'
p3572
I4126
sS'located'
p3573
I1951
sS'cabbies'
p3574
I1626
sS'numerous'
p3575
I3560
sS'blended'
p3576
I4083
sS'instead'
p3577
I694
sS'palates'
p3578
I3475
sS'establishment'
p3579
I1227
sS'oz'
p3580
I1699
sS'fare'
p3581
I539
sS'dent'
p3582
I4324
sS'entree'
p3583
I1458
sS'blocks'
p3584
I1577
sS'attend'
p3585
I943
sS'tiem'
p3586
I1985
sS'watch'
p3587
I2806
sS'waters'
p3588
I3012
sS'act'
p3589
I3317
sS'collection'
p3590
I3759
sS'dc'
p3591
I4355
sS'mixed'
p3592
I2847
sS'stars'
p3593
I3434
sS'incompetency'
p3594
I2835
sS'ethnic'
p3595
I2539
sS'fits'
p3596
I4394
sS'da'
p3597
I3637
sS'upstate'
p3598
I3390
sS'efficiently'
p3599
I1616
sS'tomato'
p3600
I1609
sS'crabcakes'
p3601
I4068
sS'ot'
p3602
I399
sS'poached'
p3603
I1921
sS'light'
p3604
I1297
sS'counter'
p3605
I838
sS'lines'
p3606
I1984
sS'interrupted'
p3607
I2474
sS'dinners'
p3608
I3044
sS'bakery'
p3609
I1906
sS'edamames'
p3610
I3811
sS'honestly'
p3611
I3696
sS'allow'
p3612
I3359
sS'classy'
p3613
I1093
sS'fallback'
p3614
I3363
sS'lined'
p3615
I1627
sS'counted'
p3616
I377
sS'bartenders'
p3617
I1956
sS'preparing'
p3618
I2453
sS'ummmmm'
p3619
I3427
sS'six'
p3620
I3802
sS'soggy'
p3621
I1784
sS'minnow'
p3622
I2909
sS'rices'
p3623
I2014
sS'encouraged'
p3624
I3140
sS'ladies'
p3625
I3187
sS'citysearch'
p3626
I1434
sS'charmingly'
p3627
I2681
sS'mojito'
p3628
I866
sS'celebrations'
p3629
I1902
sS'including'
p3630
I984
sS'looks'
p3631
I1183
sS'mentioned'
p3632
I2931
sS'recomendations'
p3633
I3307
sS'nasty'
p3634
I3732
sS'butternut'
p3635
I3297
sS'bunch'
p3636
I1201
sS'perfect'
p3637
I139
sS'fromager'
p3638
I2405
sS'brioche'
p3639
I3335
sS'le'
p3640
I465
sS'lb'
p3641
I3665
sS'la'
p3642
I3059
sS'chosen'
p3643
I1561
sS'll'
p3644
I198
sS'criticize'
p3645
I3814
sS'lt'
p3646
I3672
sS'willing'
p3647
I2607
sS'oblige'
p3648
I3476
sS'choose'
p3649
I1896
sS'graze'
p3650
I4372
sS'orange'
p3651
I3884
sS'waterbugs'
p3652
I3546
sS'crowds'
p3653
I1983
sS'jukebox'
p3654
I3502
sS'ly'
p3655
I3700
sS'artisanal'
p3656
I540
sS'whilst'
p3657
I4221
sS'greater'
p3658
I3691
sS'dal'
p3659
I635
sS'dam'
p3660
I637
sS'plaintains'
p3661
I4275
sS'swordfish'
p3662
I1353
sS'mention'
p3663
I560
sS'kofta'
p3664
I3596
sS'hands'
p3665
I2638
sS'front'
p3666
I1379
sS'seaweed'
p3667
I1714
sS'day'
p3668
I391
sS'minimalist'
p3669
I1170
sS'personally'
p3670
I3181
sS'toddler'
p3671
I4311
sS'panang'
p3672
I606
sS'risotto'
p3673
I3681
sS'warned'
p3674
I1647
sS'freshness'
p3675
I2775
sS'yasuda'
p3676
I2951
sS'blazing'
p3677
I3993
sS'delightful'
p3678
I2119
sS'fritters'
p3679
I3740
sS'princesses'
p3680
I2022
sS'accompanied'
p3681
I847
sS'bills'
p3682
I1822
sS'glasses'
p3683
I879
sS'chairs'
p3684
I3642
sS'watery'
p3685
I1993
sS'cry'
p3686
I3786
sS'doing'
p3687
I1384
sS'deegan'
p3688
I3186
sS'parties'
p3689
I3338
sS'ambiance'
p3690
I617
sS'unbelievable'
p3691
I4079
sS'apppetizers'
p3692
I2940
sS'mundane'
p3693
I4207
sS'remarkably'
p3694
I4299
sS'exceeded'
p3695
I2603
sS'separating'
p3696
I3463
sS'our'
p3697
I60
sS'80'
p3698
I2363
sS'disco'
p3699
I4006
sS'talking'
p3700
I3903
sS'wander'
p3701
I900
sS'special'
p3702
I447
sS'out'
p3703
I121
sS'category'
p3704
I2413
sS'sauc'
p3705
I3764
sS"'"
I56
sS'nothingon'
p3706
I1793
sS'boutique'
p3707
I4185
sS'herded'
p3708
I4337
sS'casualness'
p3709
I3362
sS'yellowtail'
p3710
I2557
sS'barley'
p3711
I3875
sS'red'
p3712
I2499
sS'scampi'
p3713
I2023
sS'unda'
p3714
I3724
sS'bubbly'
p3715
I2915
sS'shut'
p3716
I1355
sS'approached'
p3717
I1990
sS'wines'
p3718
I581
sS'thius'
p3719
I2888
sS'southern'
p3720
I3497
sS'coem'
p3721
I3524
sS'promptly'
p3722
I663
sS'guizhou'
p3723
I2330
sS'completely'
p3724
I11
sS'surely'
p3725
I2204
sS'york'
p3726
I700
sS'usual'
p3727
I2045
sS'excpetiona'
p3728
I2525
sS'rejoice'
p3729
I3397
sS'distinctive'
p3730
I4285
sS'craving'
p3731
I820
sS'smirks'
p3732
I3976
sS'freshwater'
p3733
I2275
sS'organic'
p3734
I3448
sS'prepare'
p3735
I3167
sS'g'
I2055
sS'napoli'
p3736
I2640
sS'steal'
p3737
I2523
sS'could'
p3738
I21
sS'times'
p3739
I511
sS'marcelo'
p3740
I3203
sS'conversation'
p3741
I1111
sS'produce'
p3742
I2636
sS'pudding'
p3743
I934
sS'curtious'
p3744
I290
sS'stickler'
p3745
I3052
sS'meals'
p3746
I2144
sS'margaritas'
p3747
I3671
sS'marsala'
p3748
I1486
sS'waitress'
p3749
I706
sS'designed'
p3750
I3943
sS'kendall'
p3751
I3424
sS'rudely'
p3752
I2464
sS'apps'
p3753
I3170
sS'scene'
p3754
I1126
sS'reaches'
p3755
I525
sS'soothing'
p3756
I1349
sS'mai'
p3757
I2344
sS'steamy'
p3758
I1066
sS'owner'
p3759
I204
sS'reached'
p3760
I3017
sS'blows'
p3761
I2747
sS'precisely'
p3762
I844
sS'quality'
p3763
I1016
sS'straight'
p3764
I3574
sS'prixe'
p3765
I3103
sS'indistinguished'
p3766
I2402
sS'has'
p3767
I151
sS'management'
p3768
I1354
sS'sadly'
p3769
I2002
sS'fascinating'
p3770
I4225
sS'decrease'
p3771
I1873
sS'privacy'
p3772
I1684
sS'ordering'
p3773
I1290
sS'accent'
p3774
I1298
sS'system'
p3775
I1106
sS'adopted'
p3776
I3661
sS'shockingly'
p3777
I2896
sS'herky'
p3778
I2005
sS'their'
p3779
I385
sS'intermediate'
p3780
I2217
sS'impecible'
p3781
I444
sS'wrapped'
p3782
I2429
sS'siam'
p3783
I3684
sS'pakistani'
p3784
I1625
sS'roomier'
p3785
I2489
sS'gummy'
p3786
I90
sS'shell'
p3787
I498
sS'stomach'
p3788
I304
sS'lot'
p3789
I1725
sS'mojitos'
p3790
I3891
sS'exactly'
p3791
I1702
sS'boton'
p3792
I3542
sS'biggest'
p3793
I1928
sS'lil'
p3794
I4364
sS'accompaniment'
p3795
I3367
sS'anyones'
p3796
I3119
sS'tuscan'
p3797
I3657
sS'lush'
p3798
I3978
sS'completes'
p3799
I3274
sS'remember'
p3800
I1594
sS'loved'
p3801
I1961
sS'parched'
p3802
I2805
sS'boring'
p3803
I3381
sS'bother'
p3804
I3498
sS'see'
p3805
I1087
sS'rarity'
p3806
I2709
sS'cucumbers'
p3807
I2562
sS'appealing'
p3808
I1357
sS'yoshi'
p3809
I3387
sS'loves'
p3810
I2889
sS'6th'
p3811
I1557
sS'neapolitan'
p3812
I2717
sS'visited'
p3813
I152
sS'negatively'
p3814
I482
sS'steep'
p3815
I3412
sS'amuse'
p3816
I1880
sS'bet'
p3817
I1898
sS'delmonico'
p3818
I4048
sS'dowtown'
p3819
I1908
sS'lightly'
p3820
I2718
sS'horrendous'
p3821
I2412
sS'comfortable'
p3822
I645
sS'stike'
p3823
I3374
sS'have'
p3824
I83
sS'need'
p3825
I567
sS'saltimbocca'
p3826
I3552
sS'dosas'
p3827
I3176
sS'apparently'
p3828
I2555
sS'clearly'
p3829
I727
sS'energeic'
p3830
I2654
sS'unbearable'
p3831
I1110
sS'minimally'
p3832
I4278
sS'dishes'
p3833
I201
sS'savory'
p3834
I3971
sS'allergies'
p3835
I3105
sS'oozing'
p3836
I3074
sS'able'
p3837
I1593
sS'mid'
p3838
I4315
sS'impecable'
p3839
I2396
sS'bagel'
p3840
I946
sS'mix'
p3841
I888
sS'sprinkled'
p3842
I2496
sS'flavored'
p3843
I4248
sS'which'
p3844
I18
sS'fetish'
p3845
I3526
sS'korean'
p3846
I4319
sS'unbearably'
p3847
I3364
sS'churrasco'
p3848
I4082
sS'unless'
p3849
I631
sS'centre'
p3850
I4391
sS'who'
p3851
I676
sS'mortal'
p3852
I3334
sS'milanese'
p3853
I4303
sS'filets'
p3854
I2832
sS'snacking'
p3855
I2540
sS'digestive'
p3856
I1105
sS'lectured'
p3857
I3057
sS'achilles'
p3858
I3409
sS'class'
p3859
I764
sS'freindly'
p3860
I2461
sS'discourage'
p3861
I4154
sS'refreshing'
p3862
I2445
sS'conversations'
p3863
I3533
sS'reminds'
p3864
I2797
sS'enthusiastic'
p3865
I2299
sS'inappropriate'
p3866
I3850
sS'request'
p3867
I1838
sS'hh'
p3868
I3257
sS'pastor'
p3869
I3967
sS'martini'
p3870
I387
sS'looked'
p3871
I1034
sS'scents'
p3872
I480
sS'movie'
p3873
I4020
sS'occasion'
p3874
I794
sS'normally'
p3875
I3491
sS'fact'
p3876
I951
sS'tear'
p3877
I2483
sS'atmosphere'
p3878
I147
sS'selection'
p3879
I190
sS'burner'
p3880
I3087
sS'agreed'
p3881
I61
sS'sent'
p3882
I2006
sS'doughy'
p3883
I3153
sS'anyway'
p3884
I1484
sS'schimmel'
p3885
I3677
sS'bring'
p3886
I1495
sS'planning'
p3887
I1959
sS'parked'
p3888
I1447
sS'weekly'
p3889
I3705
sS'chevre'
p3890
I1639
sS'rough'
p3891
I212
sS'longer'
p3892
I1765
sS'feat'
p3893
I1643
sS'pleased'
p3894
I1222
sS'samosa'
p3895
I2341
sS'staff'
p3896
I3
sS'costco'
p3897
I3347
sS'based'
p3898
I1050
sS'knowledge'
p3899
I2383
sS'jay'
p3900
I108
sS'('
I67
sS'winner'
p3901
I4404
sS'jap'
p3902
I4380
sS'should'
p3903
I970
sS'terminal'
p3904
I1506
sS'surroundings'
p3905
I3394
sS'beautification'
p3906
I2866
sS'creamy'
p3907
I4122
sS'horedevous'
p3908
I3528
sS'sastifying'
p3909
I2784
sS'combo'
p3910
I2033
sS'myriad'
p3911
I3008
sS'flan'
p3912
I3926
sS'local'
p3913
I3630
sS'hope'
p3914
I556
sS'regularly'
p3915
I602
sS'cube'
p3916
I3431
sS'keeps'
p3917
I3310
sS'skimp'
p3918
I1742
sS'aanother'
p3919
I2303
sS'exceptional'
p3920
I33
sS'beat'
p3921
I222
sS'familiar'
p3922
I3506
sS'overall'
p3923
I547
sS'lucky'
p3924
I1509
sS'specjal'
p3925
I3349
sS'joint'
p3926
I2242
sS'bean'
p3927
I2331
sS'ones'
p3928
I2595
sS'waterbug'
p3929
I2670
sS'perfection'
p3930
I1807
sS'words'
p3931
I237
sS'striped'
p3932
I1309
sS'knowledgable'
p3933
I1750
sS'chips'
p3934
I2078
sS'abby'
p3935
I2649
sS'ghetto'
p3936
I3199
sS'following'
p3937
I1859
sS'amid'
p3938
I2926
sS'places'
p3939
I1818
sS'ended'
p3940
I2822
sS'shopping'
p3941
I4393
sS'h'
I1455
sS'gras'
p3942
I3322
sS'stuff'
p3943
I1404
sS'she'
p3944
I781
sS'knicks'
p3945
I4357
sS'grab'
p3946
I2494
sS'view'
p3947
I1296
sS'concoction'
p3948
I2240
sS'btw'
p3949
I4003
sS'inventive'
p3950
I2266
sS'exists'
p3951
I2334
sS'pinard'
p3952
I467
sS'taiwanese'
p3953
I423
sS'lazy'
p3954
I3726
sS'artsy'
p3955
I3898
sS'yorkie'
p3956
I1745
sS'intensity'
p3957
I3872
sS'powder'
p3958
I2497
sS'teas'
p3959
I3889
sS'gaskin'
p3960
I2301
sS'cold'
p3961
I1466
sS'packed'
p3962
I458
sS'noticicing'
p3963
I3040
sS'closer'
p3964
I263
sS'nolita'
p3965
I2355
sS'nightmare'
p3966
I1364
sS'horribly'
p3967
I2143
sS'meatballs'
p3968
I2278
sS'tend'
p3969
I1103
sS'favor'
p3970
I1086
sS'written'
p3971
I1036
sS'bruno'
p3972
I3485
sS'closed'
p3973
I2787
sS'horrible'
p3974
I6
sS'progress'
p3975
I605
sS'neither'
p3976
I2520
sS'joya'
p3977
I1010
sS'bought'
p3978
I1518
sS'nudged'
p3979
I2771
sS'comparable'
p3980
I992
sS'nosiy'
p3981
I1769
sS'dozen'
p3982
I3430
sS'opening'
p3983
I2028
sS'importance'
p3984
I687
sS'weak'
p3985
I3231
sS'beverages'
p3986
I1287
sS'deliver'
p3987
I2967
sS'job'
p3988
I2766
sS'joe'
p3989
I2731
sS'key'
p3990
I2232
sS'rooftop'
p3991
I4360
sS'hits'
p3992
I4313
sS'commenting'
p3993
I1121
sS'buttah'
p3994
I1781
sS'taking'
p3995
I744
sS'unglamorous'
p3996
I4114
sS'kosher'
p3997
I3108
sS'etc'
p3998
I1835
sS'weehawken'
p3999
I2957
sS'bronx'
p4000
I3407
sS'puff'
p4001
I275
sS'passing'
p4002
I1316
sS'fry'
p4003
I3028
sS'kinds'
p4004
I1890
sS'masses'
p4005
I3408
sS'jersey'
p4006
I2296
sS'otherwise'
p4007
I1301
sS'comment'
p4008
I1387
sS'hold'
p4009
I2900
sS'co'
p4010
I439
sS'cordial'
p4011
I3313
sS'wall'
p4012
I173
sS'ca'
p4013
I229
sS'walk'
p4014
I252
sS'arugula'
p4015
I1651
sS'taylor'
p4016
I3987
sS'crafted'
p4017
I2047
sS'table'
p4018
I347
sS'trays'
p4019
I1574
sS'intitally'
p4020
I3380
sS'insde'
p4021
I2039
sS'addition'
p4022
I1864
sS'decent'
p4023
I857
sS'balsamic'
p4024
I2203
sS'sara'
p4025
I2107
sS'holidays'
p4026
I3797
sS'dazzling'
p4027
I2110
sS'apologize'
p4028
I3734
sS'drank'
p4029
I964
sS'seasoned'
p4030
I3707
sS'treat'
p4031
I1773
sS'recognize'
p4032
I2174
sS'curtain'
p4033
I1748
sS'hottest'
p4034
I3406
sS'waste'
p4035
I2053
sS'naples'
p4036
I2662
sS'bbq'
p4037
I623
sS'ls'
p4038
I3285
sS'puerto'
p4039
I4383
sS'faced'
p4040
I1685
sS'shoulders'
p4041
I1140
sS'general'
p4042
I2190
sS'upstrairs'
p4043
I4282
sS'dente'
p4044
I4167
sS'painted'
p4045
I1218
sS'moved'
p4046
I1735
sS'lambchops'
p4047
I1863
sS'bruscetta'
p4048
I2184
sS'kickers'
p4049
I4331
sS'crappy'
p4050
I614
sS'parmesean'
p4051
I2201
sS'finished'
p4052
I1182
sS'ensuring'
p4053
I2992
sS'sausages'
p4054
I1717
sS'decreased'
p4055
I3480
sS'portabella'
p4056
I4428
sS'improved'
p4057
I685
sS'brunch'
p4058
I1021
sS'ins'
p4059
I2009
sS'bannan'
p4060
I3778
sS'recomends'
p4061
I3725
sS'present'
p4062
I942
sS'welcoming'
p4063
I4170
sS'/'
I3862
sS'unlike'
p4064
I1266
sS'plain'
p4065
I896
sS'vanilla'
p4066
I3458
sS'usha'
p4067
I3766
sS'artfully'
p4068
I3952
sS'value'
p4069
I1302
sS'choices'
p4070
I271
sS'will'
p4071
I39
sS'politely'
p4072
I4270
sS'owns'
p4073
I3261
sS'wild'
p4074
I1785
sS'au'
p4075
I283
sS'ultra'
p4076
I1213
sS'frustrating'
p4077
I3190
sS'coddled'
p4078
I3401
sS'~'
I3210
sS'mamoun'
p4079
I2634
sS'stuffing'
p4080
I2409
sS'aesthetics'
p4081
I3029
sS've'
p4082
I96
sS'almost'
p4083
I381
sS'squid'
p4084
I1694
sS'thus'
p4085
I2550
sS'site'
p4086
I1490
sS'surface'
p4087
I3817
sS'10:15pm'
p4088
I2757
sS'helped'
p4089
I1678
sS'vs'
p4090
I1254
sS'vt'
p4091
I555
sS'claimed'
p4092
I1433
sS'ave'
p4093
I1130
sS'toninos'
p4094
I3805
sS')'
I81
sS'began'
p4095
I3088
sS'waitresses'
p4096
I2286
sS'member'
p4097
I3224
sS'when'
p4098
I134
sS'strange'
p4099
I2366
sS'flower'
p4100
I2511
sS'largest'
p4101
I752
sS'eclectic'
p4102
I1133
sS'party'
p4103
I1152
sS'cream'
p4104
I1721
sS'tomatoes'
p4105
I1741
sS'difficult'
p4106
I452
sS'succulent'
p4107
I842
sS'elbows'
p4108
I4280
sS'ball'
p4109
I4001
sS'pho'
p4110
I2145
sS'slightly'
p4111
I1805
sS'caters'
p4112
I1668
sS'drink'
p4113
I1554
sS'upon'
p4114
I249
sS'overcrowded'
p4115
I2816
sS'overpack'
p4116
I2227
sS'frequently'
p4117
I3332
sS'impeccable'
p4118
I940
sS'lobby'
p4119
I1338
sS'warming'
p4120
I3612
sS'pleasantly'
p4121
I3846
sS'off'
p4122
I462
sS'reflection'
p4123
I3253
sS'sweets'
p4124
I3890
sS'nevertheless'
p4125
I91
sS'variety'
p4126
I371
sS'well'
p4127
I501
sS'rack'
p4128
I4381
sS'delictable'
p4129
I2527
sS'thought'
p4130
I991
sS'1'
I2653
sS'english'
p4131
I2534
sS'limp'
p4132
I3068
sS'raving'
p4133
I3034
sS'caramelized'
p4134
I657
sS'restuarant'
p4135
I1598
sS'bending'
p4136
I3950
sS'medley'
p4137
I4191
sS'cashew'
p4138
I2879
sS'routinely'
p4139
I2473
sS'less'
p4140
I490
sS'claiming'
p4141
I1531
sS'accurate'
p4142
I438
sS'dosa'
p4143
I363
sS'cakes'
p4144
I3058
sS'somosas'
p4145
I3583
sS'freshmess'
p4146
I609
sS'rooms'
p4147
I3464
sS'seats'
p4148
I169
sS'iceberg'
p4149
I2186
sS'bgel'
p4150
I2622
sS'topping'
p4151
I3182
sS'web'
p4152
I1489
sS'generous'
p4153
I2098
sS'nicky'
p4154
I1771
sS'drunk'
p4155
I4439
sS'sky'
p4156
I861
sS'nidos'
p4157
I4089
sS'bench'
p4158
I956
sS'knish'
p4159
I2860
sS'winnie'
p4160
I3548
sS'add'
p4161
I1816
sS'lower'
p4162
I3440
sS'combine'
p4163
I4128
sS'attractive'
p4164
I2807
sS'possibly'
p4165
I3312
sS'mannered'
p4166
I3465
sS'smart'
p4167
I4420
sS'warrant'
p4168
I1279
sS'wimpy'
p4169
I4294
sS'kick'
p4170
I957
sS'checking'
p4171
I2723
sS'crushed'
p4172
I1245
sS'fats'
p4173
I2132
sS'royalty'
p4174
I2597
sS'five'
p4175
I735
sS'whatever'
p4176
I42
sS'margharita'
p4177
I3599
sS'desk'
p4178
I747
sS'immediately'
p4179
I1414
sS'presentaion'
p4180
I2154
sS'exellent'
p4181
I1945
sS'heating'
p4182
I3711
sS'offerings'
p4183
I4222
sS'necessary'
p4184
I2012
sS'like'
p4185
I45
sS'onion'
p4186
I1039
sS'sizes'
p4187
I1646
sS'neighboors'
p4188
I1141
sS'vibrant'
p4189
I1848
sS'roti'
p4190
I1095
sS'roth'
p4191
I2133
sS'hosts'
p4192
I1870
sS'become'
p4193
I434
sS'works'
p4194
I1758
sS'soft'
p4195
I497
sS'page'
p4196
I3527
sS'heel'
p4197
I3410
sS'italian'
p4198
I586
sS'accessible'
p4199
I2768
sS'warmed'
p4200
I2850
sS'because'
p4201
I197
sS'classical'
p4202
I1661
sS'branzini'
p4203
I4300
sS'alive'
p4204
I2976
sS'notices'
p4205
I4398
sS'vessel'
p4206
I3454
sS'warmer'
p4207
I2252
sS'recommendation'
p4208
I2517
sS'proper'
p4209
I804
sS'thier'
p4210
I923
sS'peter'
p4211
I1648
sS'stuffy'
p4212
I1358
sS'recognition'
p4213
I798
sS'happens'
p4214
I1690
sS'hipsters'
p4215
I3605
sS'trust'
p4216
I3820
sS'ess'
p4217
I945
sS'jalapeno'
p4218
I2513
sS'esp'
p4219
I1347
sS'literally'
p4220
I976
sS'avoid'
p4221
I1197
sS'lean'
p4222
I1311
sS'favors'
p4223
I3337
sS'does'
p4224
I220
sS'passion'
p4225
I531
sS'bustling'
p4226
I3139
sS'assuming'
p4227
I3621
sS'forgiven'
p4228
I2182
sS'truffle'
p4229
I1791
sS'?'
I1395
sS'trout'
p4230
I2277
sS'pepper'
p4231
I2092
sS'noise'
p4232
I987
sS'reaching'
p4233
I3743
sS'rock'
p4234
I2627
sS'likewise'
p4235
I4326
sS'host'
p4236
I1000
sS'although'
p4237
I242
sS'hospitable'
p4238
I2596
sS'pasta'
p4239
I874
sS'generic'
p4240
I3097
sS'kitsch'
p4241
I4203
sS'noisy'
p4242
I1383
sS'inconsiderate'
p4243
I3929
sS'about'
p4244
I384
sS'rare'
p4245
I507
sS'asks'
p4246
I3223
sS'getting'
p4247
I703
sS'spilled'
p4248
I3482
sS'duo'
p4249
I4008
sS'location'
p4250
I1403
sS'perks'
p4251
I57
sS'toppings'
p4252
I1812
sS'cranberry'
p4253
I4436
sS'crusted'
p4254
I161
sS'binge'
p4255
I3383
sS'pastries'
p4256
I3303
sS'equally'
p4257
I4141
sS'own'
p4258
I1210
sS'narone'
p4259
I1734
sS'washington'
p4260
I3600
sS'mushrooms'
p4261
I1700
sS'weather'
p4262
I2408
sS'promise'
p4263
I2156
sS'tiny'
p4264
I830
sS'female'
p4265
I2845
sS'quickly'
p4266
I1045
sS'bombay'
p4267
I1847
sS'lowkey'
p4268
I4255
sS'foie'
p4269
I3321
sS'yorkers'
p4270
I1953
sS'additional'
p4271
I1939
sS'rushed'
p4272
I396
sS'cabernet'
p4273
I3302
sS'vegetables'
p4274
I1431
sS'*'
I1432
sS'caviar'
p4275
I2021
sS'secret'
p4276
I1564
sS'spots'
p4277
I2004
sS'noticed'
p4278
I97
sS'grunted'
p4279
I4435
sS'cairo'
p4280
I4361
sS'mozz'
p4281
I1610
sS'maze'
p4282
I740
sS'yrs'
p4283
I3371
sS'insanely'
p4284
I3924
sS'dieters'
p4285
I4015
sS'resembled'
p4286
I2643
sS'mocha'
p4287
I4084
sS'buy'
p4288
I3346
sS'cosmopolitan'
p4289
I3569
sS'aunthentic'
p4290
I1817
sS'shank'
p4291
I3118
sS'tonino'
p4292
I3694
sS'but'
p4293
I1
sS'delivery'
p4294
I213
sS'basil'
p4295
I1611
sS'repeated'
p4296
I2925
sS'ritz'
p4297
I4289
sS'bun'
p4298
I1520
sS'bum'
p4299
I4091
sS'didnt'
p4300
I3911
sS'delivers'
p4301
I4127
sS'squeeze'
p4302
I3809
sS'eat'
p4303
I194
sS'witness'
p4304
I3460
sS'he'
p4305
I150
sS'mezzanine'
p4306
I3020
sS'mizu'
p4307
I1373
sS'sending'
p4308
I4269
sS'made'
p4309
I790
sS'evident'
p4310
I535
sS'noon'
p4311
I3360
sS'whether'
p4312
I47
sS'wish'
p4313
I546
sS'breweries'
p4314
I2887
sS'smooth'
p4315
I2660
sS'hosting'
p4316
I1150
sS'distract'
p4317
I2264
sS'warmth'
p4318
I4171
sS'reheats'
p4319
I4044
sS'record'
p4320
I1738
sS'below'
p4321
I126
sS'converted'
p4322
I3659
sS'leaves'
p4323
I3420
sS'cake'
p4324
I553
sS'problem'
p4325
I701
sS'piece'
p4326
I961
sS'minutes'
p4327
I597
sS'display'
p4328
I3006
sS'chip'
p4329
I3785
sS'bearing'
p4330
I2972
sS'irish'
p4331
I4437
sS'abrupt'
p4332
I3168
sS'horrific'
p4333
I1548
sS'intimidating'
p4334
I1044
sS'reservations'
p4335
I510
sS'penny'
p4336
I1015
sS'pie'
p4337
I1212
sS'pig'
p4338
I1584
sS'twist'
p4339
I4147
sS'utensils'
p4340
I4325
sS'inn'
p4341
I2432
sS'ino'
p4342
I2068
sS'falafal'
p4343
I3920
sS'goodness'
p4344
I1713
sS'saet'
p4345
I3793
sS'arrival'
p4346
I1439
sS'partly'
p4347
I2123
sS'lentil'
p4348
I2563
sS'international'
p4349
I4062
sS'suan'
p4350
I2677
sS'compared'
p4351
I2621
sS'mushroom'
p4352
I1786
sS'ingredients'
p4353
I122
sS'meaningless'
p4354
I3189
sS'dressed'
p4355
I1774
sS'photobook'
p4356
I1675
sS'45'
p4357
I1831
sS'offensive'
p4358
I819
sS'treatment'
p4359
I3441
sS'40'
p4360
I2056
sS'unpleasantries'
p4361
I4219
sS'other'
p4362
I27
sS'details'
p4363
I3305
sS'sick'
p4364
I3975
sS'incredibly'
p4365
I1282
sS'pickels'
p4366
I853
sS'conclusion'
p4367
I2313
sS'repeat'
p4368
I4041
sS'star'
p4369
I736
sS'distintive'
p4370
I3953
sS'monday'
p4371
I2942
sS'butch'
p4372
I4201
sS'shredded'
p4373
I696
sS'embracing'
p4374
I2113
sS'stay'
p4375
I1293
sS'birthdays'
p4376
I4174
sS'alright'
p4377
I3578
sS'chance'
p4378
I1960
sS'sandwhich'
p4379
I3708
sS'kinda'
p4380
I1768
sS'priced'
p4381
I1444
sS'friends'
p4382
I255
sS'pies'
p4383
I3776
sS'opened'
p4384
I1871
sS'platter'
p4385
I1931
sS'borderline'
p4386
I4414
sS'using'
p4387
I1842
sS'gelato'
p4388
I2631
sS'entertainment'
p4389
I1889
sS'jewel'
p4390
I4160
sS'rule'
p4391
I1536
sS'portion'
p4392
I1092
sS'compete'
p4393
I4214
sS'definately'
p4394
I4336
sS'specialize'
p4395
I4101
sS'lives'
p4396
I3753
sS'8th'
p4397
I4208
sS'baked'
p4398
I1941
sS'kalbi'
p4399
I1946
sS'argentinian'
p4400
I3565
s.